Archive member included because of file (symbol)

c:/devkitPro/PAlib/lib\libpa9.a(PA.o)
                              procedures.o (PA_CheckLid)
c:/devkitPro/PAlib/lib\libpa9.a(PA_BgTiles.o)
                              procedures.o (PA_BgInfo)
c:/devkitPro/PAlib/lib\libpa9.a(PA_Draw.o)
                              procedures.o (PA_DrawBg)
c:/devkitPro/PAlib/lib\libpa9.a(PA_Draw16bit.o)
                              procedures.o (PA_Init16bitBg)
c:/devkitPro/PAlib/lib\libpa9.a(PA_Error.o)
                              c:/devkitPro/PAlib/lib\libpa9.a(PA_BgTiles.o) (PA_Error)
c:/devkitPro/PAlib/lib\libpa9.a(PA_Inits.o)
                              c:/devkitPro/PAlib/lib\libpa9.a(PA_Error.o) (PA_Init2D)
c:/devkitPro/PAlib/lib\libpa9.a(PA_Interrupt.o)
                              c:/devkitPro/PAlib/lib\libpa9.a(PA_Inits.o) (PA_VBLCountersReset)
c:/devkitPro/PAlib/lib\libpa9.a(PA_Keys.o)
                              c:/devkitPro/PAlib/lib\libpa9.a(PA_Interrupt.o) (PA_UpdatePad)
c:/devkitPro/PAlib/lib\libpa9.a(PA_Math.o)
                              procedures.o (RandomValue)
c:/devkitPro/PAlib/lib\libpa9.a(PA_Palette.o)
                              procedures.o (PA_LoadSpriteExtPal)
c:/devkitPro/PAlib/lib\libpa9.a(PA_RTC.o)
                              c:/devkitPro/PAlib/lib\libpa9.a(PA_Inits.o) (PA_UpdateUserInfo)
c:/devkitPro/PAlib/lib\libpa9.a(PA_Reco.o)
                              c:/devkitPro/PAlib/lib\libpa9.a(PA_Inits.o) (PA_UseGraffiti)
c:/devkitPro/PAlib/lib\libpa9.a(PA_Sprite.o)
                              procedures.o (obj_per_gfx)
c:/devkitPro/PAlib/lib\libpa9.a(PA_Stuff.o)
                              c:/devkitPro/PAlib/lib\libpa9.a(PA_BgTiles.o) (PA_SetVideoMode)
c:/devkitPro/PAlib/lib\libpa9.a(PA_Text.o)
                              c:/devkitPro/PAlib/lib\libpa9.a(PA_Inits.o) (PA_textpal)
c:/devkitPro/PAlib/lib\libpa9.a(PA_TextBits.o)
                              c:/devkitPro/PAlib/lib\libpa9.a(PA_Inits.o) (pa_bittextpoliceheight)
c:/devkitPro/PAlib/lib\libpa9.a(PA_TiledFont.o)
                              c:/devkitPro/PAlib/lib\libpa9.a(PA_Text.o) (PA_TiledFont)
c:/devkitPro/PAlib/lib\libpa9.a(PA_BmpFont0.o)
                              c:/devkitPro/PAlib/lib\libpa9.a(PA_Inits.o) (PA_BmpFont0)
c:/devkitPro/PAlib/lib\libpa9.a(PA_BmpFont1.o)
                              c:/devkitPro/PAlib/lib\libpa9.a(PA_Inits.o) (PA_BmpFont1)
c:/devkitPro/PAlib/lib\libpa9.a(PA_BmpFont2.o)
                              c:/devkitPro/PAlib/lib\libpa9.a(PA_Inits.o) (PA_BmpFont2)
c:/devkitPro/PAlib/lib\libpa9.a(PA_BmpFont3.o)
                              c:/devkitPro/PAlib/lib\libpa9.a(PA_Inits.o) (PA_BmpFont3)
c:/devkitPro/PAlib/lib\libpa9.a(PA_BmpFont4.o)
                              c:/devkitPro/PAlib/lib\libpa9.a(PA_Inits.o) (PA_BmpFont4)
c:/devkitPro/PAlib/lib\libpa9.a(PA_TiledFont_Map.bin.o)
                              c:/devkitPro/PAlib/lib\libpa9.a(PA_Inits.o) (PA_TiledFont_Map)
c:/devkitPro/PAlib/lib\libpa9.a(PA_TiledFont_Pal.bin.o)
                              c:/devkitPro/PAlib/lib\libpa9.a(PA_Inits.o) (PA_TiledFont_Pal)
c:/devkitPro/PAlib/lib\libpa9.a(PA_TiledFont_Tiles.bin.o)
                              c:/devkitPro/PAlib/lib\libpa9.a(PA_Inits.o) (PA_TiledFont_Tiles)
c:/devkitPro/PAlib/lib\libpa9.a(PA_BmpFont0_Map.bin.o)
                              c:/devkitPro/PAlib/lib\libpa9.a(PA_TextBits.o) (PA_BmpFont0_Map)
c:/devkitPro/PAlib/lib\libpa9.a(PA_BmpFont0_Sizes.bin.o)
                              c:/devkitPro/PAlib/lib\libpa9.a(PA_TextBits.o) (PA_BmpFont0_Sizes)
c:/devkitPro/PAlib/lib\libpa9.a(PA_BmpFont0_Tiles.bin.o)
                              c:/devkitPro/PAlib/lib\libpa9.a(PA_Inits.o) (PA_BmpFont0_Tiles_size)
c:/devkitPro/PAlib/lib\libpa9.a(PA_BmpFont1_Map.bin.o)
                              c:/devkitPro/PAlib/lib\libpa9.a(PA_TextBits.o) (PA_BmpFont1_Map)
c:/devkitPro/PAlib/lib\libpa9.a(PA_BmpFont1_Sizes.bin.o)
                              c:/devkitPro/PAlib/lib\libpa9.a(PA_TextBits.o) (PA_BmpFont1_Sizes)
c:/devkitPro/PAlib/lib\libpa9.a(PA_BmpFont1_Tiles.bin.o)
                              c:/devkitPro/PAlib/lib\libpa9.a(PA_Inits.o) (PA_BmpFont1_Tiles_size)
c:/devkitPro/PAlib/lib\libpa9.a(PA_BmpFont2_Map.bin.o)
                              c:/devkitPro/PAlib/lib\libpa9.a(PA_TextBits.o) (PA_BmpFont2_Map)
c:/devkitPro/PAlib/lib\libpa9.a(PA_BmpFont2_Sizes.bin.o)
                              c:/devkitPro/PAlib/lib\libpa9.a(PA_TextBits.o) (PA_BmpFont2_Sizes)
c:/devkitPro/PAlib/lib\libpa9.a(PA_BmpFont2_Tiles.bin.o)
                              c:/devkitPro/PAlib/lib\libpa9.a(PA_Inits.o) (PA_BmpFont2_Tiles_size)
c:/devkitPro/PAlib/lib\libpa9.a(PA_BmpFont3_Map.bin.o)
                              c:/devkitPro/PAlib/lib\libpa9.a(PA_TextBits.o) (PA_BmpFont3_Map)
c:/devkitPro/PAlib/lib\libpa9.a(PA_BmpFont3_Sizes.bin.o)
                              c:/devkitPro/PAlib/lib\libpa9.a(PA_TextBits.o) (PA_BmpFont3_Sizes)
c:/devkitPro/PAlib/lib\libpa9.a(PA_BmpFont3_Tiles.bin.o)
                              c:/devkitPro/PAlib/lib\libpa9.a(PA_Inits.o) (PA_BmpFont3_Tiles_size)
c:/devkitPro/PAlib/lib\libpa9.a(PA_BmpFont4_Map.bin.o)
                              c:/devkitPro/PAlib/lib\libpa9.a(PA_TextBits.o) (PA_BmpFont4_Map)
c:/devkitPro/PAlib/lib\libpa9.a(PA_BmpFont4_Sizes.bin.o)
                              c:/devkitPro/PAlib/lib\libpa9.a(PA_TextBits.o) (PA_BmpFont4_Sizes)
c:/devkitPro/PAlib/lib\libpa9.a(PA_BmpFont4_Tiles.bin.o)
                              c:/devkitPro/PAlib/lib\libpa9.a(PA_Inits.o) (PA_BmpFont4_Tiles_size)
c:/devkitPro/PAlib/lib\libpa9.a(PA_Fifo.o)
                              c:/devkitPro/PAlib/lib\libpa9.a(PA_Inits.o) (PA_InitFifo)
c:/devkitPro/PAlib/lib\libpa9.a(PA_NewBg.o)
                              c:/devkitPro/PAlib/lib\libpa9.a(PA_Text.o) (PA_LoadText)
c:/devkitPro/PAlib/lib\libpa9.a(PA_PaletteEx.o)
                              c:/devkitPro/PAlib/lib\libpa9.a(PA_Text.o) (PA_SetBgPalNCol)
c:/devkitPro/PAlib/lib\libpa9.a(PA_Text8bit.o)
                              c:/devkitPro/PAlib/lib\libpa9.a(PA_NewBg.o) (bit8_tiles)
c:/devkitPro/PAlib/lib\libpa9.a(PA_16c.o)
                              c:/devkitPro/PAlib/lib\libpa9.a(PA_NewBg.o) (c16_tiles)
c:/devkitPro/PAlib/lib\libpa9.a(PA_BgEasy.o)
                              c:/devkitPro/PAlib/lib\libpa9.a(PA_NewBg.o) (PA_StoreEasyBgInfos)
c:/devkitPro/PAlib/lib\libpa9.a(PA_BgLargeMap.o)
                              c:/devkitPro/PAlib/lib\libpa9.a(PA_BgEasy.o) (PA_InfLargeScrollXN)
c:/devkitPro/PAlib/lib\libpa9.a(PA_BgRot.o)
                              c:/devkitPro/PAlib/lib\libpa9.a(PA_NewBg.o) (PA_LoadRotBgMap)
c:/devkitPro/PAlib/lib\libpa9.a(PA_Keyboard.o)
                              c:/devkitPro/PAlib/lib\libpa9.a(PA_NewBg.o) (PA_Keyboard_Struct)
c:/devkitPro/PAlib/lib\libpa9.a(keyboard.map.o)
                              c:/devkitPro/PAlib/lib\libpa9.a(PA_Keyboard.o) (keyboard_Map)
c:/devkitPro/PAlib/lib\libpa9.a(keyboard.pal.o)
                              c:/devkitPro/PAlib/lib\libpa9.a(PA_Keyboard.o) (keyboard_Palette)
c:/devkitPro/PAlib/lib\libpa9.a(keyboard.raw.o)
                              c:/devkitPro/PAlib/lib\libpa9.a(PA_Keyboard.o) (keyboard_Tiles)
c:/devkitPro/libnds/lib\libnds9.a(keys.o)
                              c:/devkitPro/PAlib/lib\libpa9.a(PA_Keys.o) (scanKeys)
c:/devkitPro/libnds/lib\libnds9.a(system.o)
                              c:/devkitPro/PAlib/lib\libpa9.a(PA_Inits.o) (powerOn)
c:/devkitPro/libnds/lib\libnds9.a(touch.o)
                              c:/devkitPro/PAlib/lib\libpa9.a(PA_Keys.o) (touchRead)
c:/devkitPro/libnds/lib\libnds9.a(video.o)
                              c:/devkitPro/PAlib/lib\libpa9.a(PA_Draw16bit.o) (vramSetMainBanks)
c:/devkitPro/libnds/lib\libnds9.a(initSystem.o)
                              c:/devkitpro/devkitarm/bin/../lib/gcc/arm-eabi/4.7.0/../../../../arm-eabi/lib/thumb/ds_arm9_crt0.o (initSystem)
c:/devkitPro/libnds/lib\libnds9.a(fifosystem.o)
                              c:/devkitPro/PAlib/lib\libpa9.a(PA.o) (fifoSendValue32)
c:/devkitPro/libnds/lib\libnds9.a(interrupts.o)
                              c:/devkitPro/PAlib/lib\libpa9.a(PA.o) (irqSet)
c:/devkitPro/libnds/lib\libnds9.a(libnds_exit.arm.o)
                              c:/devkitpro/devkitarm/bin/../lib/gcc/arm-eabi/4.7.0/../../../../arm-eabi/lib/thumb/ds_arm9_crt0.o (__libnds_exit)
c:/devkitPro/libnds/lib\libnds9.a(dcache.o)
                              c:/devkitPro/PAlib/lib\libpa9.a(PA_BgTiles.o) (DC_FlushRange)
c:/devkitPro/libnds/lib\libnds9.a(mpu_setup.o)
                              c:/devkitpro/devkitarm/bin/../lib/gcc/arm-eabi/4.7.0/../../../../arm-eabi/lib/thumb/ds_arm9_crt0.o (__libnds_mpu_setup)
c:/devkitPro/libnds/lib\libnds9.a(biosCalls.o)
                              c:/devkitPro/PAlib/lib\libpa9.a(PA.o) (swiDelay)
c:/devkitPro/libnds/lib\libnds9.a(interruptDispatcher.o)
                              c:/devkitPro/libnds/lib\libnds9.a(interrupts.o) (IntrMain)
c:/devkitPro/libnds/lib\libnds9.a(swiSoftReset.o)
                              c:/devkitPro/libnds/lib\libnds9.a(fifosystem.o) (swiSoftReset)
c:/devkitpro/devkitarm/bin/../lib/gcc/arm-eabi/4.7.0/thumb\libgcc.a(_divsi3.o)
                              c:/devkitPro/PAlib/lib\libpa9.a(PA_Keys.o) (__aeabi_idiv)
c:/devkitpro/devkitarm/bin/../lib/gcc/arm-eabi/4.7.0/thumb\libgcc.a(_dvmd_tls.o)
                              c:/devkitpro/devkitarm/bin/../lib/gcc/arm-eabi/4.7.0/thumb\libgcc.a(_divsi3.o) (__aeabi_idiv0)
c:/devkitpro/devkitarm/bin/../lib/gcc/arm-eabi/4.7.0/thumb\libgcc.a(_arm_addsubdf3.o)
                              c:/devkitPro/PAlib/lib\libpa9.a(PA_Text.o) (__aeabi_dsub)
c:/devkitpro/devkitarm/bin/../lib/gcc/arm-eabi/4.7.0/thumb\libgcc.a(_arm_muldivdf3.o)
                              c:/devkitPro/PAlib/lib\libpa9.a(PA_Text.o) (__aeabi_dmul)
c:/devkitpro/devkitarm/bin/../lib/gcc/arm-eabi/4.7.0/thumb\libgcc.a(_arm_cmpdf2.o)
                              c:/devkitPro/PAlib/lib\libpa9.a(PA_Text.o) (__aeabi_dcmplt)
c:/devkitpro/devkitarm/bin/../lib/gcc/arm-eabi/4.7.0/thumb\libgcc.a(_arm_fixdfsi.o)
                              c:/devkitPro/PAlib/lib\libpa9.a(PA_Text.o) (__aeabi_d2iz)
c:/devkitpro/devkitarm/bin/../lib/gcc/arm-eabi/4.7.0/thumb\libgcc.a(_muldi3.o)
                              c:/devkitPro/PAlib/lib\libpa9.a(PA_Math.o) (__aeabi_lmul)
c:/devkitpro/devkitarm/bin/../lib/gcc/arm-eabi/4.7.0/../../../../arm-eabi/lib/thumb\libg.a(lib_a-gmtime.o)
                              c:/devkitPro/PAlib/lib\libpa9.a(PA_RTC.o) (gmtime)
c:/devkitpro/devkitarm/bin/../lib/gcc/arm-eabi/4.7.0/../../../../arm-eabi/lib/thumb\libg.a(lib_a-gmtime_r.o)
                              c:/devkitpro/devkitarm/bin/../lib/gcc/arm-eabi/4.7.0/../../../../arm-eabi/lib/thumb\libg.a(lib_a-gmtime.o) (gmtime_r)
c:/devkitpro/devkitarm/bin/../lib/gcc/arm-eabi/4.7.0/../../../../arm-eabi/lib/thumb\libg.a(lib_a-impure.o)
                              c:/devkitpro/devkitarm/bin/../lib/gcc/arm-eabi/4.7.0/../../../../arm-eabi/lib/thumb\libg.a(lib_a-gmtime.o) (_impure_ptr)
c:/devkitpro/devkitarm/bin/../lib/gcc/arm-eabi/4.7.0/../../../../arm-eabi/lib/thumb\libg.a(lib_a-init.o)
                              c:/devkitpro/devkitarm/bin/../lib/gcc/arm-eabi/4.7.0/../../../../arm-eabi/lib/thumb/ds_arm9_crt0.o (__libc_init_array)
c:/devkitpro/devkitarm/bin/../lib/gcc/arm-eabi/4.7.0/../../../../arm-eabi/lib/thumb\libg.a(lib_a-locale.o)
                              c:/devkitPro/PAlib/lib\libpa9.a(PA_Inits.o) (setlocale)
c:/devkitpro/devkitarm/bin/../lib/gcc/arm-eabi/4.7.0/../../../../arm-eabi/lib/thumb\libg.a(lib_a-malloc.o)
                              c:/devkitPro/PAlib/lib\libpa9.a(PA_Text8bit.o) (malloc)
c:/devkitpro/devkitarm/bin/../lib/gcc/arm-eabi/4.7.0/../../../../arm-eabi/lib/thumb\libg.a(lib_a-mallocr.o)
                              c:/devkitpro/devkitarm/bin/../lib/gcc/arm-eabi/4.7.0/../../../../arm-eabi/lib/thumb\libg.a(lib_a-malloc.o) (_malloc_r)
c:/devkitpro/devkitarm/bin/../lib/gcc/arm-eabi/4.7.0/../../../../arm-eabi/lib/thumb\libg.a(lib_a-mbtowc_r.o)
                              c:/devkitpro/devkitarm/bin/../lib/gcc/arm-eabi/4.7.0/../../../../arm-eabi/lib/thumb\libg.a(lib_a-locale.o) (__utf8_mbtowc)
c:/devkitpro/devkitarm/bin/../lib/gcc/arm-eabi/4.7.0/../../../../arm-eabi/lib/thumb\libg.a(lib_a-memcpy-stub.o)
                              c:/devkitPro/PAlib/lib\libpa9.a(PA_Stuff.o) (memcpy)
c:/devkitpro/devkitarm/bin/../lib/gcc/arm-eabi/4.7.0/../../../../arm-eabi/lib/thumb\libg.a(lib_a-mktm_r.o)
                              c:/devkitpro/devkitarm/bin/../lib/gcc/arm-eabi/4.7.0/../../../../arm-eabi/lib/thumb\libg.a(lib_a-gmtime_r.o) (_mktm_r)
c:/devkitpro/devkitarm/bin/../lib/gcc/arm-eabi/4.7.0/../../../../arm-eabi/lib/thumb\libg.a(lib_a-mlock.o)
                              c:/devkitpro/devkitarm/bin/../lib/gcc/arm-eabi/4.7.0/../../../../arm-eabi/lib/thumb\libg.a(lib_a-mallocr.o) (__malloc_lock)
c:/devkitpro/devkitarm/bin/../lib/gcc/arm-eabi/4.7.0/../../../../arm-eabi/lib/thumb\libg.a(lib_a-strcasecmp.o)
                              c:/devkitPro/PAlib/lib\libpa9.a(PA_Stuff.o) (strcasecmp)
c:/devkitpro/devkitarm/bin/../lib/gcc/arm-eabi/4.7.0/../../../../arm-eabi/lib/thumb\libg.a(lib_a-strcat.o)
                              c:/devkitPro/PAlib/lib\libpa9.a(PA_Stuff.o) (strcat)
c:/devkitpro/devkitarm/bin/../lib/gcc/arm-eabi/4.7.0/../../../../arm-eabi/lib/thumb\libg.a(lib_a-strchr.o)
                              c:/devkitpro/devkitarm/bin/../lib/gcc/arm-eabi/4.7.0/../../../../arm-eabi/lib/thumb\libg.a(lib_a-locale.o) (strchr)
c:/devkitpro/devkitarm/bin/../lib/gcc/arm-eabi/4.7.0/../../../../arm-eabi/lib/thumb\libg.a(lib_a-strcmp.o)
                              c:/devkitPro/PAlib/lib\libpa9.a(PA_Stuff.o) (strcmp)
c:/devkitpro/devkitarm/bin/../lib/gcc/arm-eabi/4.7.0/../../../../arm-eabi/lib/thumb\libg.a(lib_a-strcpy.o)
                              c:/devkitPro/PAlib/lib\libpa9.a(PA_Stuff.o) (strcpy)
c:/devkitpro/devkitarm/bin/../lib/gcc/arm-eabi/4.7.0/../../../../arm-eabi/lib/thumb\libg.a(lib_a-strlcpy.o)
                              c:/devkitpro/devkitarm/bin/../lib/gcc/arm-eabi/4.7.0/../../../../arm-eabi/lib/thumb\libg.a(lib_a-locale.o) (strlcpy)
c:/devkitpro/devkitarm/bin/../lib/gcc/arm-eabi/4.7.0/../../../../arm-eabi/lib/thumb\libg.a(lib_a-strlen.o)
                              c:/devkitPro/PAlib/lib\libpa9.a(PA_Stuff.o) (strlen)
c:/devkitpro/devkitarm/bin/../lib/gcc/arm-eabi/4.7.0/../../../../arm-eabi/lib/thumb\libg.a(lib_a-strncasecmp.o)
                              c:/devkitpro/devkitarm/bin/../lib/gcc/arm-eabi/4.7.0/../../../../arm-eabi/lib/thumb\libg.a(lib_a-locale.o) (strncasecmp)
c:/devkitpro/devkitarm/bin/../lib/gcc/arm-eabi/4.7.0/../../../../arm-eabi/lib/thumb\libg.a(lib_a-strncmp.o)
                              c:/devkitpro/devkitarm/bin/../lib/gcc/arm-eabi/4.7.0/../../../../arm-eabi/lib/thumb\libg.a(lib_a-locale.o) (strncmp)
c:/devkitpro/devkitarm/bin/../lib/gcc/arm-eabi/4.7.0/../../../../arm-eabi/lib/thumb\libg.a(lib_a-strncpy.o)
                              c:/devkitpro/devkitarm/bin/../lib/gcc/arm-eabi/4.7.0/../../../../arm-eabi/lib/thumb\libg.a(lib_a-locale.o) (strncpy)
c:/devkitpro/devkitarm/bin/../lib/gcc/arm-eabi/4.7.0/../../../../arm-eabi/lib/thumb\libg.a(lib_a-strtol.o)
                              c:/devkitpro/devkitarm/bin/../lib/gcc/arm-eabi/4.7.0/../../../../arm-eabi/lib/thumb\libg.a(lib_a-locale.o) (_strtol_r)
c:/devkitpro/devkitarm/bin/../lib/gcc/arm-eabi/4.7.0/../../../../arm-eabi/lib/thumb\libg.a(lib_a-sysstat.o)
                              c:/devkitPro/PAlib/lib\libpa9.a(PA_Stuff.o) (stat)
c:/devkitpro/devkitarm/bin/../lib/gcc/arm-eabi/4.7.0/../../../../arm-eabi/lib/thumb\libg.a(lib_a-time.o)
                              c:/devkitPro/PAlib/lib\libpa9.a(PA_RTC.o) (time)
c:/devkitpro/devkitarm/bin/../lib/gcc/arm-eabi/4.7.0/../../../../arm-eabi/lib/thumb\libg.a(lib_a-tzlock.o)
                              c:/devkitpro/devkitarm/bin/../lib/gcc/arm-eabi/4.7.0/../../../../arm-eabi/lib/thumb\libg.a(lib_a-mktm_r.o) (__tz_lock)
c:/devkitpro/devkitarm/bin/../lib/gcc/arm-eabi/4.7.0/../../../../arm-eabi/lib/thumb\libg.a(lib_a-tzvars.o)
                              c:/devkitpro/devkitarm/bin/../lib/gcc/arm-eabi/4.7.0/../../../../arm-eabi/lib/thumb\libg.a(lib_a-mktm_r.o) (_daylight)
c:/devkitpro/devkitarm/bin/../lib/gcc/arm-eabi/4.7.0/../../../../arm-eabi/lib/thumb\libg.a(lib_a-wctomb_r.o)
                              c:/devkitpro/devkitarm/bin/../lib/gcc/arm-eabi/4.7.0/../../../../arm-eabi/lib/thumb\libg.a(lib_a-locale.o) (__utf8_wctomb)
c:/devkitpro/devkitarm/bin/../lib/gcc/arm-eabi/4.7.0/../../../../arm-eabi/lib/thumb\libg.a(lib_a-ctype_.o)
                              c:/devkitpro/devkitarm/bin/../lib/gcc/arm-eabi/4.7.0/../../../../arm-eabi/lib/thumb\libg.a(lib_a-locale.o) (__set_ctype)
c:/devkitpro/devkitarm/bin/../lib/gcc/arm-eabi/4.7.0/../../../../arm-eabi/lib/thumb\libg.a(lib_a-freer.o)
                              c:/devkitpro/devkitarm/bin/../lib/gcc/arm-eabi/4.7.0/../../../../arm-eabi/lib/thumb\libg.a(lib_a-malloc.o) (_free_r)
c:/devkitpro/devkitarm/bin/../lib/gcc/arm-eabi/4.7.0/../../../../arm-eabi/lib/thumb\libg.a(lib_a-getenv_r.o)
                              c:/devkitpro/devkitarm/bin/../lib/gcc/arm-eabi/4.7.0/../../../../arm-eabi/lib/thumb\libg.a(lib_a-locale.o) (_getenv_r)
c:/devkitpro/devkitarm/bin/../lib/gcc/arm-eabi/4.7.0/../../../../arm-eabi/lib/thumb\libg.a(lib_a-gettzinfo.o)
                              c:/devkitpro/devkitarm/bin/../lib/gcc/arm-eabi/4.7.0/../../../../arm-eabi/lib/thumb\libg.a(lib_a-mktm_r.o) (__gettzinfo)
c:/devkitpro/devkitarm/bin/../lib/gcc/arm-eabi/4.7.0/../../../../arm-eabi/lib/thumb\libg.a(lib_a-environ.o)
                              c:/devkitpro/devkitarm/bin/../lib/gcc/arm-eabi/4.7.0/../../../../arm-eabi/lib/thumb\libg.a(lib_a-getenv_r.o) (environ)
c:/devkitpro/devkitarm/bin/../lib/gcc/arm-eabi/4.7.0/../../../../arm-eabi/lib/thumb\libg.a(lib_a-envlock.o)
                              c:/devkitpro/devkitarm/bin/../lib/gcc/arm-eabi/4.7.0/../../../../arm-eabi/lib/thumb\libg.a(lib_a-getenv_r.o) (__env_lock)
c:/devkitpro/devkitarm/bin/../lib/gcc/arm-eabi/4.7.0/../../../../arm-eabi/lib/thumb\libsysbase.a(sbrk.o)
                              c:/devkitpro/devkitarm/bin/../lib/gcc/arm-eabi/4.7.0/../../../../arm-eabi/lib/thumb\libg.a(lib_a-mallocr.o) (_sbrk_r)
c:/devkitpro/devkitarm/bin/../lib/gcc/arm-eabi/4.7.0/../../../../arm-eabi/lib/thumb\libsysbase.a(stat.o)
                              c:/devkitpro/devkitarm/bin/../lib/gcc/arm-eabi/4.7.0/../../../../arm-eabi/lib/thumb\libg.a(lib_a-sysstat.o) (_stat_r)
c:/devkitpro/devkitarm/bin/../lib/gcc/arm-eabi/4.7.0/../../../../arm-eabi/lib/thumb\libsysbase.a(times.o)
                              c:/devkitpro/devkitarm/bin/../lib/gcc/arm-eabi/4.7.0/../../../../arm-eabi/lib/thumb\libg.a(lib_a-time.o) (_gettimeofday_r)
c:/devkitpro/devkitarm/bin/../lib/gcc/arm-eabi/4.7.0/../../../../arm-eabi/lib/thumb\libsysbase.a(malloc_vars.o)
                              c:/devkitpro/devkitarm/bin/../lib/gcc/arm-eabi/4.7.0/../../../../arm-eabi/lib/thumb/ds_arm9_crt0.o (fake_heap_start)
c:/devkitpro/devkitarm/bin/../lib/gcc/arm-eabi/4.7.0/../../../../arm-eabi/lib/thumb\libsysbase.a(build_argv.o)
                              c:/devkitpro/devkitarm/bin/../lib/gcc/arm-eabi/4.7.0/../../../../arm-eabi/lib/thumb/ds_arm9_crt0.o (build_argv)
c:/devkitpro/devkitarm/bin/../lib/gcc/arm-eabi/4.7.0/../../../../arm-eabi/lib/thumb\libsysbase.a(syscall_support.o)
                              c:/devkitPro/libnds/lib\libnds9.a(initSystem.o) (__syscalls)
c:/devkitpro/devkitarm/bin/../lib/gcc/arm-eabi/4.7.0/../../../../arm-eabi/lib/thumb\libsysbase.a(dirent.o)
                              c:/devkitPro/PAlib/lib\libpa9.a(PA_Stuff.o) (opendir)
c:/devkitpro/devkitarm/bin/../lib/gcc/arm-eabi/4.7.0/../../../../arm-eabi/lib/thumb\libsysbase.a(iosupport.o)
                              c:/devkitpro/devkitarm/bin/../lib/gcc/arm-eabi/4.7.0/../../../../arm-eabi/lib/thumb\libsysbase.a(stat.o) (FindDevice)
c:/devkitpro/devkitarm/bin/../lib/gcc/arm-eabi/4.7.0/thumb\libgcc.a(_udivsi3.o)
                              c:/devkitpro/devkitarm/bin/../lib/gcc/arm-eabi/4.7.0/../../../../arm-eabi/lib/thumb\libg.a(lib_a-strtol.o) (__aeabi_uidiv)
c:/devkitpro/devkitarm/bin/../lib/gcc/arm-eabi/4.7.0/../../../../arm-eabi/lib/thumb\libg.a(lib_a-errno.o)
                              c:/devkitpro/devkitarm/bin/../lib/gcc/arm-eabi/4.7.0/../../../../arm-eabi/lib/thumb\libsysbase.a(times.o) (__errno)
c:/devkitpro/devkitarm/bin/../lib/gcc/arm-eabi/4.7.0/../../../../arm-eabi/lib/thumb\libg.a(lib_a-strnlen.o)
                              c:/devkitpro/devkitarm/bin/../lib/gcc/arm-eabi/4.7.0/../../../../arm-eabi/lib/thumb\libsysbase.a(dirent.o) (strnlen)

Allocating common symbols
Common symbol       size              file

PA_ScreenSpace      0x2               c:/devkitPro/PAlib/lib\libpa9.a(PA.o)
PA_Reco             0xc               c:/devkitPro/PAlib/lib\libpa9.a(PA_Reco.o)
fifo_datamsg_data   0x40              c:/devkitPro/libnds/lib\libnds9.a(fifosystem.o)
PA_Draw16           0x8               c:/devkitPro/PAlib/lib\libpa9.a(PA_16c.o)
PA_RTC              0x8               c:/devkitPro/PAlib/lib\libpa9.a(PA_RTC.o)
free_mem            0x2000            c:/devkitPro/PAlib/lib\libpa9.a(PA_Sprite.o)
PadPointer          0x4               c:/devkitPro/PAlib/lib\libpa9.a(PA.o)
__dsimode           0x1               c:/devkitPro/libnds/lib\libnds9.a(initSystem.o)
fifo_buffer         0x800             c:/devkitPro/libnds/lib\libnds9.a(fifosystem.o)
PA_texttiles        0x8               c:/devkitPro/PAlib/lib\libpa9.a(PA_Text.o)
n_free_mem          0x4               c:/devkitPro/PAlib/lib\libpa9.a(PA_Sprite.o)
PA_SpritePrio       0x100             c:/devkitPro/PAlib/lib\libpa9.a(PA_Sprite.o)
PA_LetterPos        0x3004            c:/devkitPro/PAlib/lib\libpa9.a(PA_TextBits.o)
pa16bitbuffer       0x2               c:/devkitPro/PAlib/lib\libpa9.a(PA_Draw16bit.o)
PA_olddowntime      0x4               c:/devkitPro/PAlib/lib\libpa9.a(PA_Draw.o)
PA_Keyboard_Struct  0x12              c:/devkitPro/PAlib/lib\libpa9.a(PA_Keyboard.o)
PA_parallaxY        0x20              c:/devkitPro/PAlib/lib\libpa9.a(PA_BgTiles.o)
PA_VBLCounter       0x40              c:/devkitPro/PAlib/lib\libpa9.a(PA_Interrupt.o)
used_mem            0x800             c:/devkitPro/PAlib/lib\libpa9.a(PA_Sprite.o)
fifo_value32_func   0x40              c:/devkitPro/libnds/lib\libnds9.a(fifosystem.o)
fifo_address_func   0x40              c:/devkitPro/libnds/lib\libnds9.a(fifosystem.o)
PA_parallaxX        0x20              c:/devkitPro/PAlib/lib\libpa9.a(PA_BgTiles.o)
PA_DrawBg32         0x8               c:/devkitPro/PAlib/lib\libpa9.a(PA_Draw.o)
pa_checklid         0x1               c:/devkitPro/PAlib/lib\libpa9.a(PA.o)
PA_RecoInfo         0x18              c:/devkitPro/PAlib/lib\libpa9.a(PA_Reco.o)
spriteanims         0x2400            c:/devkitPro/PAlib/lib\libpa9.a(PA_Sprite.o)
PA_SpriteAnimP      0x2000            c:/devkitPro/PAlib/lib\libpa9.a(PA_Sprite.o)
PA_IPC              0x198             c:/devkitPro/PAlib/lib\libpa9.a(PA.o)
Pad                 0x27              c:/devkitPro/PAlib/lib\libpa9.a(PA.o)
PA_TextBox          0x8               c:/devkitPro/PAlib/lib\libpa9.a(PA_Text.o)
PAbgtext            0x2               c:/devkitPro/PAlib/lib\libpa9.a(PA_Text.o)
tempsize            0x2               c:/devkitPro/PAlib/lib\libpa9.a(PA_BgTiles.o)
tab                 0xb00             procedures.o
pa_printx           0x8               c:/devkitPro/PAlib/lib\libpa9.a(PA_Text.o)
pa_bittextpoliceheight
                    0xa               c:/devkitPro/PAlib/lib\libpa9.a(PA_TextBits.o)
Stylus              0x1c              c:/devkitPro/PAlib/lib\libpa9.a(PA.o)
PA_first            0x200             c:/devkitPro/PAlib/lib\libpa9.a(PA_Sprite.o)
pa_bittextsizes     0xa               c:/devkitPro/PAlib/lib\libpa9.a(PA_TextBits.o)
fifo_value32_data   0x40              c:/devkitPro/libnds/lib\libnds9.a(fifosystem.o)
charblocks          0x8c              c:/devkitPro/PAlib/lib\libpa9.a(PA_BgTiles.o)
PA_next             0x100             c:/devkitPro/PAlib/lib\libpa9.a(PA_Sprite.o)
PA_bgmap            0x20              c:/devkitPro/PAlib/lib\libpa9.a(PA.o)
PA_GifInfo          0x14              c:/devkitPro/PAlib/lib\libpa9.a(PA.o)
fifo_value32_queue  0x40              c:/devkitPro/libnds/lib\libnds9.a(fifosystem.o)
PA_StylusPos        0x9c40            c:/devkitPro/PAlib/lib\libpa9.a(PA_Reco.o)
fifo_data_queue     0x40              c:/devkitPro/libnds/lib\libnds9.a(fifosystem.o)
rotbg_size          0x8               c:/devkitPro/PAlib/lib\libpa9.a(PA_BgRot.o)
PA_VBLCounterOn     0x10              c:/devkitPro/PAlib/lib\libpa9.a(PA_Interrupt.o)
pa_printy           0x8               c:/devkitPro/PAlib/lib\libpa9.a(PA_Text.o)
PA_DrawBg           0x8               c:/devkitPro/PAlib/lib\libpa9.a(PA_Draw.o)
PA_oldx             0x4               c:/devkitPro/PAlib/lib\libpa9.a(PA_Draw.o)
textcol             0x4               c:/devkitPro/PAlib/lib\libpa9.a(PA_Text.o)
PA_drawsize         0x2               c:/devkitPro/PAlib/lib\libpa9.a(PA_Draw.o)
obj_per_gfx         0x800             c:/devkitPro/PAlib/lib\libpa9.a(PA_Sprite.o)
PA_CustomShape      0xd48             c:/devkitPro/PAlib/lib\libpa9.a(PA_Reco.o)
PA_RecoShape        0x10              c:/devkitPro/PAlib/lib\libpa9.a(PA_Reco.o)
pa_printscroll      0x4               c:/devkitPro/PAlib/lib\libpa9.a(PA_Text.o)
PA_oldy             0x4               c:/devkitPro/PAlib/lib\libpa9.a(PA_Draw.o)
PA_MovedSprite      0x10              c:/devkitPro/PAlib/lib\libpa9.a(PA.o)
PA_BgInfo           0x220             c:/devkitPro/PAlib/lib\libpa9.a(PA_BgTiles.o)
tempvar             0x2               c:/devkitPro/PAlib/lib\libpa9.a(PA_Draw.o)
punixTime           0x4               c:/devkitpro/devkitarm/bin/../lib/gcc/arm-eabi/4.7.0/../../../../arm-eabi/lib/thumb\libsysbase.a(times.o)
fifo_address_data   0x40              c:/devkitPro/libnds/lib\libnds9.a(fifosystem.o)
_PA_LidDown         0x1               c:/devkitPro/PAlib/lib\libpa9.a(PA_Keys.o)
PA_temppal          0x200             c:/devkitPro/PAlib/lib\libpa9.a(PA_Draw.o)
PA_UserInfo         0x52              c:/devkitPro/PAlib/lib\libpa9.a(PA_RTC.o)
scrollpos           0xe0              c:/devkitPro/PAlib/lib\libpa9.a(PA_BgTiles.o)
PA_obj              0x800             c:/devkitPro/PAlib/lib\libpa9.a(PA_Sprite.o)
DualSpriteX         0x100             c:/devkitPro/PAlib/lib\libpa9.a(PA_Sprite.o)
PA_textpal          0x8               c:/devkitPro/PAlib/lib\libpa9.a(PA_Text.o)
PA_nBit             0x2               c:/devkitPro/PAlib/lib\libpa9.a(PA_Draw.o)
fifo_datamsg_func   0x40              c:/devkitPro/libnds/lib\libnds9.a(fifosystem.o)
PA_Draw1632         0x8               c:/devkitPro/PAlib/lib\libpa9.a(PA_16c.o)
pa_obj_created      0x100             c:/devkitPro/PAlib/lib\libpa9.a(PA_Sprite.o)
fifo_address_queue  0x40              c:/devkitPro/libnds/lib\libnds9.a(fifosystem.o)
PA_textmap          0x8               c:/devkitPro/PAlib/lib\libpa9.a(PA_Text.o)
PA_ExtPal           0x4               c:/devkitPro/PAlib/lib\libpa9.a(PA_Palette.o)

Memory Configuration

Name             Origin             Length             Attributes
rom              0x08000000         0x02000000
ewram            0x02000000         0x003ff000
dtcm             0x0b000000         0x00004000
vectors          0x01000000         0x00000100
itcm             0x01000100         0x00007f00
*default*        0x00000000         0xffffffff

Linker script and memory map

                0x01000000                __vectors_start = ORIGIN (vectors)
                0x01000100                __itcm_start = ORIGIN (itcm)
                0x023ff000                __ewram_end = (ORIGIN (ewram) + 0x3ff000)
                0x023ff000                __eheap_end = (ORIGIN (ewram) + 0x3ff000)
                0x0b000000                __dtcm_start = ORIGIN (dtcm)
                0x0b004000                __dtcm_top = (ORIGIN (dtcm) + 0x4000)
                0x0b003ff8                __irq_flags = (__dtcm_top - 0x8)
                0x0b003ffc                __irq_vector = (__dtcm_top - 0x4)
                0x0b003f00                __sp_svc = (__dtcm_top - 0x100)
                0x0b003e00                __sp_irq = (__sp_svc - 0x100)
                0x0b003d00                __sp_usr = (__sp_irq - 0x100)

.init           0x02000000      0x23c
                0x02000000                __text_start = .
 *(.init)
 .init          0x02000000      0x230 c:/devkitpro/devkitarm/bin/../lib/gcc/arm-eabi/4.7.0/../../../../arm-eabi/lib/thumb/ds_arm9_crt0.o
                0x02000000                _start
 .init          0x02000230        0x4 c:/devkitpro/devkitarm/bin/../lib/gcc/arm-eabi/4.7.0/thumb/crti.o
                0x02000230                _init
 .init          0x02000234        0x8 c:/devkitpro/devkitarm/bin/../lib/gcc/arm-eabi/4.7.0/thumb/crtn.o
                0x0200023c                . = ALIGN (0x4)

.plt
 *(.plt)

.text           0x02000240     0xcb70
 *(EXCLUDE_FILE(*.itcm*) .text)
 .text          0x02000240        0x0 c:/devkitpro/devkitarm/bin/../lib/gcc/arm-eabi/4.7.0/../../../../arm-eabi/lib/thumb/ds_arm9_crt0.o
 .text          0x02000240        0x0 c:/devkitpro/devkitarm/bin/../lib/gcc/arm-eabi/4.7.0/thumb/crti.o
 .text          0x02000240       0xd0 c:/devkitpro/devkitarm/bin/../lib/gcc/arm-eabi/4.7.0/thumb/crtbegin.o
 .text          0x02000310        0x0 demarrage_bas_Bitmap.o
 .text          0x02000310        0x0 demarrage_haut_Bitmap.o
 .text          0x02000310        0x0 joueur_b_Pal.o
 .text          0x02000310        0x0 joueur_b_Sprite.o
 .text          0x02000310        0x0 joueur_d_Pal.o
 .text          0x02000310        0x0 joueur_d_Sprite.o
 .text          0x02000310        0x0 joueur_g_Pal.o
 .text          0x02000310        0x0 joueur_g_Sprite.o
 .text          0x02000310        0x0 joueur_h_Pal.o
 .text          0x02000310        0x0 joueur_h_Sprite.o
 .text          0x02000310        0x0 pacman_Pal.o
 .text          0x02000310        0x0 pacman_Sprite.o
 .text          0x02000310        0x0 sprite_00_Pal.o
 .text          0x02000310        0x0 sprite_00_Sprite.o
 .text          0x02000310        0x0 sprite_01_Pal.o
 .text          0x02000310        0x0 sprite_01_Sprite.o
 .text          0x02000310        0x0 sprite_02_Pal.o
 .text          0x02000310        0x0 sprite_02_Sprite.o
 .text          0x02000310        0x0 sprite_03_Pal.o
 .text          0x02000310        0x0 sprite_03_Sprite.o
 .text          0x02000310        0x0 sprite_10_Pal.o
 .text          0x02000310        0x0 sprite_10_Sprite.o
 .text          0x02000310        0x0 sprite_11_Pal.o
 .text          0x02000310        0x0 sprite_11_Sprite.o
 .text          0x02000310        0x0 sprite_12_Pal.o
 .text          0x02000310        0x0 sprite_12_Sprite.o
 .text          0x02000310        0x0 sprite_13_Pal.o
 .text          0x02000310        0x0 sprite_13_Sprite.o
 .text          0x02000310        0x0 sprite_20_Pal.o
 .text          0x02000310        0x0 sprite_20_Sprite.o
 .text          0x02000310        0x0 sprite_21_Pal.o
 .text          0x02000310        0x0 sprite_21_Sprite.o
 .text          0x02000310        0x0 sprite_22_Pal.o
 .text          0x02000310        0x0 sprite_22_Sprite.o
 .text          0x02000310        0x0 sprite_23_Pal.o
 .text          0x02000310        0x0 sprite_23_Sprite.o
 .text          0x02000310        0x0 sprite_30_Pal.o
 .text          0x02000310        0x0 sprite_30_Sprite.o
 .text          0x02000310        0x0 sprite_31_Pal.o
 .text          0x02000310        0x0 sprite_31_Sprite.o
 .text          0x02000310        0x0 sprite_32_Pal.o
 .text          0x02000310        0x0 sprite_32_Sprite.o
 .text          0x02000310        0x0 main.o
 .text          0x02000310      0xbe8 procedures.o
                0x020003a8                init_PAlib
                0x02000460                init_start
                0x02000580                chargement_palettes
                0x02000724                chargement_fond_ecran
                0x02000728                init_tab
                0x02000784                affichage_map
                0x020007bc                pause
                0x020007e4                deplacement_pacman
                0x02000e98                initialisation
                0x02000eac                reboot
                0x02000ed0                jeu
 .text          0x02000ef8       0xbc c:/devkitPro/PAlib/lib\libpa9.a(PA.o)
                0x02000ef8                PA_SetBrightness
                0x02000f38                PA_Nothing
                0x02000f3c                PA_CheckLid
 .text          0x02000fb4      0x6f0 c:/devkitPro/PAlib/lib\libpa9.a(PA_BgTiles.o)
                0x02000fb4                PA_ReLoadBgTiles
                0x02000ffc                PA_InitBg
                0x020010e4                PA_DeleteTiles
                0x02001178                PA_LoadBgTilesEx
                0x02001388                PA_DeleteMap
                0x02001404                PA_LoadBgMap
                0x02001580                PA_ResetBgSysScreen
                0x02001694                PA_ResetBgSys
 .text          0x020016a4      0x2b4 c:/devkitPro/PAlib/lib\libpa9.a(PA_Draw.o)
                0x020016a4                PA_LoadBmpToBuffer
 .text          0x02001958      0x22c c:/devkitPro/PAlib/lib\libpa9.a(PA_Draw16bit.o)
                0x02001958                PA_Default16bitInit
                0x02001a14                PA_Init16bitBg
                0x02001a98                PA_Init16bitDblBuffer
                0x02001b24                PA_16bitSwapBuffer
 .text          0x02001b84       0x84 c:/devkitPro/PAlib/lib\libpa9.a(PA_Error.o)
                0x02001b84                PA_Error
                0x02001ba4                _PA_Assert
 .text          0x02001c08      0x278 c:/devkitPro/PAlib/lib\libpa9.a(PA_Inits.o)
                0x02001c08                PA_Init2D
                0x02001c64                PA_Init
 .text          0x02001e80       0x78 c:/devkitPro/PAlib/lib\libpa9.a(PA_Interrupt.o)
                0x02001e80                PA_VBLCountersReset
                0x02001ea0                PA_vblFunc
 .text          0x02001ef8      0x2e0 c:/devkitPro/PAlib/lib\libpa9.a(PA_Keys.o)
                0x02001ef8                PA_UpdatePad
                0x02002110                PA_UpdateStylus
 .text          0x020021d8      0x158 c:/devkitPro/PAlib/lib\libpa9.a(PA_Math.o)
                0x020021d8                PA_AdjustAngle
 .text          0x02002330      0x244 c:/devkitPro/PAlib/lib\libpa9.a(PA_Palette.o)
                0x02002330                PA_LoadSpriteExtPal
                0x020023e8                PA_InitSpriteExtPal
                0x02002440                PA_LoadBgPalN
                0x02002510                PA_InitBgExtPal
 .text          0x02002574       0xc4 c:/devkitPro/PAlib/lib\libpa9.a(PA_RTC.o)
                0x02002574                PA_UpdateUserInfo
                0x020025f8                PA_UpdateRTC
 .text          0x02002638      0x4e4 c:/devkitPro/PAlib/lib\libpa9.a(PA_Reco.o)
                0x02002638                PA_StylusLine
                0x02002798                PA_AnalyzeShape
                0x02002a98                PA_CheckLetter
 .text          0x02002b1c      0x7dc c:/devkitPro/PAlib/lib\libpa9.a(PA_Sprite.o)
                0x02002b1c                PA_InitSpriteExtPrio
                0x02002b50                PA_ResetSpriteSysScreen
                0x02002ca4                PA_ResetSpriteSys
                0x02002cc0                PA_CreateGfx
                0x02002e1c                PA_DeleteGfx
                0x02002fb8                PA_DeleteSprite
                0x0200310c                PA_InitSpriteDraw
                0x0200316c                PA_UpdateOAM
                0x020032c0                PA_UpdateSpriteVBL
 .text          0x020032f8      0x1b4 c:/devkitPro/PAlib/lib\libpa9.a(PA_Stuff.o)
                0x020032f8                PA_SetVideoMode
                0x0200331c                PA_Locate
 *fill*         0x020034ac        0x4 ff
 .text          0x020034b0      0xa98 c:/devkitPro/PAlib/lib\libpa9.a(PA_Text.o)
                0x020034b0                PA_CreateTextPal
                0x0200355c                PA_LoadDefaultText
                0x02003624                PA_OutputSimpleText
                0x02003700                PA_OutputText
                0x02003ea0                PA_ClearTextBg
 .text          0x02003f48      0x428 c:/devkitPro/PAlib/lib\libpa9.a(PA_TextBits.o)
                0x02003f48                PA_DoAlign
                0x0200409c                PA_DoLetterPos
 .text          0x02004370        0x0 c:/devkitPro/PAlib/lib\libpa9.a(PA_TiledFont.o)
 .text          0x02004370        0x0 c:/devkitPro/PAlib/lib\libpa9.a(PA_BmpFont0.o)
 .text          0x02004370        0x0 c:/devkitPro/PAlib/lib\libpa9.a(PA_BmpFont1.o)
 .text          0x02004370        0x0 c:/devkitPro/PAlib/lib\libpa9.a(PA_BmpFont2.o)
 .text          0x02004370        0x0 c:/devkitPro/PAlib/lib\libpa9.a(PA_BmpFont3.o)
 .text          0x02004370        0x0 c:/devkitPro/PAlib/lib\libpa9.a(PA_BmpFont4.o)
 .text          0x02004370        0x0 c:/devkitPro/PAlib/lib\libpa9.a(PA_TiledFont_Map.bin.o)
 .text          0x02004370        0x0 c:/devkitPro/PAlib/lib\libpa9.a(PA_TiledFont_Pal.bin.o)
 .text          0x02004370        0x0 c:/devkitPro/PAlib/lib\libpa9.a(PA_TiledFont_Tiles.bin.o)
 .text          0x02004370        0x0 c:/devkitPro/PAlib/lib\libpa9.a(PA_BmpFont0_Map.bin.o)
 .text          0x02004370        0x0 c:/devkitPro/PAlib/lib\libpa9.a(PA_BmpFont0_Sizes.bin.o)
 .text          0x02004370        0x0 c:/devkitPro/PAlib/lib\libpa9.a(PA_BmpFont0_Tiles.bin.o)
 .text          0x02004370        0x0 c:/devkitPro/PAlib/lib\libpa9.a(PA_BmpFont1_Map.bin.o)
 .text          0x02004370        0x0 c:/devkitPro/PAlib/lib\libpa9.a(PA_BmpFont1_Sizes.bin.o)
 .text          0x02004370        0x0 c:/devkitPro/PAlib/lib\libpa9.a(PA_BmpFont1_Tiles.bin.o)
 .text          0x02004370        0x0 c:/devkitPro/PAlib/lib\libpa9.a(PA_BmpFont2_Map.bin.o)
 .text          0x02004370        0x0 c:/devkitPro/PAlib/lib\libpa9.a(PA_BmpFont2_Sizes.bin.o)
 .text          0x02004370        0x0 c:/devkitPro/PAlib/lib\libpa9.a(PA_BmpFont2_Tiles.bin.o)
 .text          0x02004370        0x0 c:/devkitPro/PAlib/lib\libpa9.a(PA_BmpFont3_Map.bin.o)
 .text          0x02004370        0x0 c:/devkitPro/PAlib/lib\libpa9.a(PA_BmpFont3_Sizes.bin.o)
 .text          0x02004370        0x0 c:/devkitPro/PAlib/lib\libpa9.a(PA_BmpFont3_Tiles.bin.o)
 .text          0x02004370        0x0 c:/devkitPro/PAlib/lib\libpa9.a(PA_BmpFont4_Map.bin.o)
 .text          0x02004370        0x0 c:/devkitPro/PAlib/lib\libpa9.a(PA_BmpFont4_Sizes.bin.o)
 .text          0x02004370        0x0 c:/devkitPro/PAlib/lib\libpa9.a(PA_BmpFont4_Tiles.bin.o)
 .text          0x02004370       0x50 c:/devkitPro/PAlib/lib\libpa9.a(PA_Fifo.o)
                0x02004370                PA_FifoMsgHandler
                0x020043ac                PA_InitFifo
 .text          0x020043c0      0x824 c:/devkitPro/PAlib/lib\libpa9.a(PA_NewBg.o)
                0x020043c0                PA_LoadBackground
                0x020048bc                PA_LoadText
                0x020049f0                PA_LoadKeyboard
                0x02004b44                PA_AddBitmapFont
                0x02004b94                PA_Add16cFont
 .text          0x02004be4      0x1e8 c:/devkitPro/PAlib/lib\libpa9.a(PA_PaletteEx.o)
                0x02004be4                PA_CreatePalBright
                0x02004ca8                PA_CreatePalTransition
                0x02004d10                PA_SetBgPalNCol
                0x02004d60                PA_SetSpritePalCol
                0x02004da8                PA_3DSetSpritePalCol
 .text          0x02004dcc     0x1230 c:/devkitPro/PAlib/lib\libpa9.a(PA_Text8bit.o)
                0x02004dcc                NoLetter
                0x02004dd0                Letter
                0x020051c0                RotLetter2
                0x02005604                RotLetter
                0x02005a4c                TranspLetter
                0x02005e70                pa_8bitTextDecompress
                0x02005ee8                PA_8bitText
                0x02005f98                PA_CenterSmartText
 .text          0x02005ffc      0x6d0 c:/devkitPro/PAlib/lib\libpa9.a(PA_16c.o)
                0x02005ffc                PA_16c8X8Color
                0x02006154                PA_Init16cBgEx
                0x020062f4                pa_16cTextDecompress
                0x02006380                PA_16cText
                0x02006504                PA_16cErase
                0x0200653c                PA_16cClearZone
 .text          0x020066cc      0x338 c:/devkitPro/PAlib/lib\libpa9.a(PA_BgEasy.o)
                0x020066cc                PA_EasyBgScrollX
                0x02006758                PA_EasyBgScrollY
                0x020067e4                PA_StoreEasyBgInfos
                0x02006820                PA_EasyBgLoadEx
 .text          0x02006a04      0xccc c:/devkitPro/PAlib/lib\libpa9.a(PA_BgLargeMap.o)
                0x02006a04                PA_LargeScrollXN
                0x02006bc0                PA_LargeScrollYN
                0x02006d70                PA_InfLargeScrollXN
                0x02006f54                PA_InfLargeScrollYN
                0x0200713c                PA_UpdateTileEngineX
                0x02007278                PA_UpdateTileEngineY
                0x020073b0                PA_InfTilesScrollX
                0x02007440                PA_InfTilesScrollY
                0x020074d0                PA_InitLargeBg
 .text          0x020076d0      0x188 c:/devkitPro/PAlib/lib\libpa9.a(PA_BgRot.o)
                0x020076d0                PA_LoadRotBgMap
 .text          0x02007858      0x604 c:/devkitPro/PAlib/lib\libpa9.a(PA_Keyboard.o)
                0x02007858                PA_ReloadKeyboardCol
                0x02007938                PA_LoadDefaultKeyboard
                0x02007a94                PA_ChangeKeyboardType
                0x02007c14                PA_SetLetterPal
                0x02007d34                PA_CheckKeyboard
 .text          0x02007e5c        0x0 c:/devkitPro/PAlib/lib\libpa9.a(keyboard.map.o)
 .text          0x02007e5c        0x0 c:/devkitPro/PAlib/lib\libpa9.a(keyboard.pal.o)
 .text          0x02007e5c        0x0 c:/devkitPro/PAlib/lib\libpa9.a(keyboard.raw.o)
 .text          0x02007e5c       0xf4 c:/devkitPro/libnds/lib\libnds9.a(keys.o)
                0x02007e5c                scanKeys
                0x02007ec8                keysHeld
                0x02007ed4                keysDown
                0x02007ee4                keysDownRepeat
                0x02007ef4                keysSetRepeat
                0x02007f0c                keysUp
                0x02007f1c                keysCurrent
 .text          0x02007f50      0x128 c:/devkitPro/libnds/lib\libnds9.a(system.o)
                0x02007f50                setSDcallback
                0x02007f5c                systemMsgHandler
                0x02007fa0                systemSleep
                0x02007fb8                systemValueHandler
                0x02007ff4                powerOn
                0x02008020                powerOff
                0x02008048                ledBlink
                0x02008058                getBatteryLevel
 .text          0x02008078       0x4c c:/devkitPro/libnds/lib\libnds9.a(touch.o)
                0x02008078                touchRead
                0x020080a0                touchReadXY
 .text          0x020080c4      0x1f8 c:/devkitPro/libnds/lib\libnds9.a(video.o)
                0x020080c4                vramSetPrimaryBanks
                0x02008108                vramSetMainBanks
                0x0200814c                vramSetBanks_EFG
                0x02008184                vramRestorePrimaryBanks
                0x02008190                vramRestoreMainBanks
                0x0200819c                vramRestoreBanks_EFG
                0x020081a8                setBrightness
                0x020081e8                vramDefault
 .text          0x020082bc      0x140 c:/devkitPro/libnds/lib\libnds9.a(initSystem.o)
                0x020082bc                initSystem
 .text          0x020083fc      0xc58 c:/devkitPro/libnds/lib\libnds9.a(fifosystem.o)
                0x02008650                fifoSendAddress
                0x0200867c                fifoSendValue32
                0x020086bc                fifoSendDatamsg
                0x0200872c                fifoGetAddress
                0x020087a4                fifoSetAddressHandler
                0x02008818                fifoGetValue32
                0x0200888c                fifoSetValue32Handler
                0x02008900                fifoGetDatamsg
                0x02008d84                fifoSetDatamsgHandler
                0x02008e1c                fifoCheckAddress
                0x02008e40                fifoCheckDatamsg
                0x02008e64                fifoCheckValue32
                0x02008e88                fifoInit
 .text          0x02009054      0x1ec c:/devkitPro/libnds/lib\libnds9.a(interrupts.o)
                0x02009054                irqDummy
                0x02009058                irqSet
                0x020090c4                irqInit
                0x02009110                irqInitHandler
                0x02009140                irqEnable
                0x020091a4                irqDisable
                0x02009208                irqClear
 .text          0x02009240       0x58 c:/devkitPro/libnds/lib\libnds9.a(libnds_exit.arm.o)
                0x02009240                systemErrorExit
                0x02009244                __libnds_exit
 .text          0x02009298       0x70 c:/devkitPro/libnds/lib\libnds9.a(dcache.o)
                0x02009298                DC_FlushAll
                0x020092c4                DC_FlushRange
                0x020092e0                DC_InvalidateAll
                0x020092ec                DC_InvalidateRange
 .text          0x02009308      0x1b4 c:/devkitPro/libnds/lib\libnds9.a(mpu_setup.o)
                0x02009308                __libnds_mpu_setup
                0x02009448                memCached
                0x02009460                memUncached
 *fill*         0x020094bc        0x4 ff
 .text          0x020094c0       0x70 c:/devkitPro/libnds/lib\libnds9.a(biosCalls.o)
                0x020094c0                swiDelay
                0x020094c4                swiIntrWait
                0x020094c8                swiWaitForVBlank
                0x020094cc                swiSleep
                0x020094d0                swiChangeSoundBias
                0x020094d4                swiDivide
                0x020094d8                swiRemainder
                0x020094de                swiDivMod
                0x020094ea                swiCopy
                0x020094ee                swiFastCopy
                0x020094f2                swiSqrt
                0x020094f6                swiCRC16
                0x020094fa                swiIsDebugger
                0x020094fe                swiUnpackBits
                0x02009502                swiDecompressLZSSWram
                0x02009506                swiDecompressLZSSVramNTR
                0x0200950a                swiDecompressLZSSVramTWL
                0x0200950e                swiDecompressHuffman
                0x02009512                swiDecompressRLEWram
                0x02009516                swiDecompressRLEVram
                0x0200951a                swiWaitForIRQ
                0x0200951e                swiDecodeDelta8
                0x02009522                swiDecodeDelta16
                0x02009526                swiSetHaltCR
 .text          0x02009530        0x0 c:/devkitPro/libnds/lib\libnds9.a(interruptDispatcher.o)
 .text          0x02009530       0x30 c:/devkitPro/libnds/lib\libnds9.a(swiSoftReset.o)
                0x02009530                swiSoftReset
 .text          0x02009560      0x150 c:/devkitpro/devkitarm/bin/../lib/gcc/arm-eabi/4.7.0/thumb\libgcc.a(_divsi3.o)
                0x02009560                __divsi3
                0x02009560                __aeabi_idiv
                0x02009690                __aeabi_idivmod
 .text          0x020096b0        0x4 c:/devkitpro/devkitarm/bin/../lib/gcc/arm-eabi/4.7.0/thumb\libgcc.a(_dvmd_tls.o)
                0x020096b0                __aeabi_idiv0
                0x020096b0                __aeabi_ldiv0
 .text          0x020096b4      0x41c c:/devkitpro/devkitarm/bin/../lib/gcc/arm-eabi/4.7.0/thumb\libgcc.a(_arm_addsubdf3.o)
                0x020096b4                __aeabi_drsub
                0x020096bc                __aeabi_dsub
                0x020096bc                __subdf3
                0x020096c0                __aeabi_dadd
                0x020096c0                __adddf3
                0x020099d0                __floatunsidf
                0x020099d0                __aeabi_ui2d
                0x020099f4                __floatsidf
                0x020099f4                __aeabi_i2d
                0x02009a1c                __aeabi_f2d
                0x02009a1c                __extendsfdf2
                0x02009a5c                __floatundidf
                0x02009a5c                __aeabi_ul2d
                0x02009a70                __floatdidf
                0x02009a70                __aeabi_l2d
 .text          0x02009ad0      0x49c c:/devkitpro/devkitarm/bin/../lib/gcc/arm-eabi/4.7.0/thumb\libgcc.a(_arm_muldivdf3.o)
                0x02009ad0                __aeabi_dmul
                0x02009ad0                __muldf3
                0x02009d60                __divdf3
                0x02009d60                __aeabi_ddiv
 .text          0x02009f6c      0x144 c:/devkitpro/devkitarm/bin/../lib/gcc/arm-eabi/4.7.0/thumb\libgcc.a(_arm_cmpdf2.o)
                0x02009f6c                __gtdf2
                0x02009f6c                __gedf2
                0x02009f74                __ltdf2
                0x02009f74                __ledf2
                0x02009f7c                __nedf2
                0x02009f7c                __eqdf2
                0x02009f7c                __cmpdf2
                0x0200a004                __aeabi_cdrcmple
                0x0200a020                __aeabi_cdcmpeq
                0x0200a020                __aeabi_cdcmple
                0x0200a038                __aeabi_dcmpeq
                0x0200a050                __aeabi_dcmplt
                0x0200a068                __aeabi_dcmple
                0x0200a080                __aeabi_dcmpge
                0x0200a098                __aeabi_dcmpgt
 .text          0x0200a0b0       0x5c c:/devkitpro/devkitarm/bin/../lib/gcc/arm-eabi/4.7.0/thumb\libgcc.a(_arm_fixdfsi.o)
                0x0200a0b0                __aeabi_d2iz
                0x0200a0b0                __fixdfsi
 .text          0x0200a10c       0x4c c:/devkitpro/devkitarm/bin/../lib/gcc/arm-eabi/4.7.0/thumb\libgcc.a(_muldi3.o)
                0x0200a10c                __muldi3
                0x0200a10c                __aeabi_lmul
 .text          0x0200a158       0x18 c:/devkitpro/devkitarm/bin/../lib/gcc/arm-eabi/4.7.0/../../../../arm-eabi/lib/thumb\libg.a(lib_a-gmtime.o)
                0x0200a158                gmtime
 .text          0x0200a170       0x10 c:/devkitpro/devkitarm/bin/../lib/gcc/arm-eabi/4.7.0/../../../../arm-eabi/lib/thumb\libg.a(lib_a-gmtime_r.o)
                0x0200a170                gmtime_r
 .text          0x0200a180        0x0 c:/devkitpro/devkitarm/bin/../lib/gcc/arm-eabi/4.7.0/../../../../arm-eabi/lib/thumb\libg.a(lib_a-impure.o)
 .text          0x0200a180       0x54 c:/devkitpro/devkitarm/bin/../lib/gcc/arm-eabi/4.7.0/../../../../arm-eabi/lib/thumb\libg.a(lib_a-init.o)
                0x0200a180                __libc_init_array
 .text          0x0200a1d4      0x950 c:/devkitpro/devkitarm/bin/../lib/gcc/arm-eabi/4.7.0/../../../../arm-eabi/lib/thumb\libg.a(lib_a-locale.o)
                0x0200a8c8                _setlocale_r
                0x0200aac4                __locale_charset
                0x0200aacc                __locale_mb_cur_max
                0x0200aad8                __locale_msgcharset
                0x0200aae4                __locale_cjk_lang
                0x0200aaf0                _localeconv_r
                0x0200aafc                setlocale
                0x0200ab18                localeconv
 .text          0x0200ab24       0x30 c:/devkitpro/devkitarm/bin/../lib/gcc/arm-eabi/4.7.0/../../../../arm-eabi/lib/thumb\libg.a(lib_a-malloc.o)
                0x0200ab24                malloc
                0x0200ab3c                free
 .text          0x0200ab54      0x51c c:/devkitpro/devkitarm/bin/../lib/gcc/arm-eabi/4.7.0/../../../../arm-eabi/lib/thumb\libg.a(lib_a-mallocr.o)
                0x0200ab54                _malloc_r
 .text          0x0200b070      0x584 c:/devkitpro/devkitarm/bin/../lib/gcc/arm-eabi/4.7.0/../../../../arm-eabi/lib/thumb\libg.a(lib_a-mbtowc_r.o)
                0x0200b070                __utf8_mbtowc
                0x0200b2d0                _mbtowc_r
                0x0200b30c                __ascii_mbtowc
                0x0200b33c                __sjis_mbtowc
                0x0200b3fc                __eucjp_mbtowc
                0x0200b4c4                __jis_mbtowc
 .text          0x0200b5f4       0x90 c:/devkitpro/devkitarm/bin/../lib/gcc/arm-eabi/4.7.0/../../../../arm-eabi/lib/thumb\libg.a(lib_a-memcpy-stub.o)
                0x0200b5f4                memcpy
 .text          0x0200b684      0x498 c:/devkitpro/devkitarm/bin/../lib/gcc/arm-eabi/4.7.0/../../../../arm-eabi/lib/thumb\libg.a(lib_a-mktm_r.o)
                0x0200b684                __tzcalc_limits
                0x0200b820                _mktm_r
 .text          0x0200bb1c        0x8 c:/devkitpro/devkitarm/bin/../lib/gcc/arm-eabi/4.7.0/../../../../arm-eabi/lib/thumb\libg.a(lib_a-mlock.o)
                0x0200bb1c                __malloc_lock
                0x0200bb20                __malloc_unlock
 .text          0x0200bb24       0x50 c:/devkitpro/devkitarm/bin/../lib/gcc/arm-eabi/4.7.0/../../../../arm-eabi/lib/thumb\libg.a(lib_a-strcasecmp.o)
                0x0200bb24                strcasecmp
 .text          0x0200bb74       0x50 c:/devkitpro/devkitarm/bin/../lib/gcc/arm-eabi/4.7.0/../../../../arm-eabi/lib/thumb\libg.a(lib_a-strcat.o)
                0x0200bb74                strcat
 .text          0x0200bbc4       0xd4 c:/devkitpro/devkitarm/bin/../lib/gcc/arm-eabi/4.7.0/../../../../arm-eabi/lib/thumb\libg.a(lib_a-strchr.o)
                0x0200bbc4                strchr
 .text          0x0200bc98       0x14 c:/devkitpro/devkitarm/bin/../lib/gcc/arm-eabi/4.7.0/../../../../arm-eabi/lib/thumb\libg.a(lib_a-strcmp.o)
                0x0200bc98                strcmp
 .text          0x0200bcac       0x10 c:/devkitpro/devkitarm/bin/../lib/gcc/arm-eabi/4.7.0/../../../../arm-eabi/lib/thumb\libg.a(lib_a-strcpy.o)
                0x0200bcac                strcpy
 .text          0x0200bcbc       0x48 c:/devkitpro/devkitarm/bin/../lib/gcc/arm-eabi/4.7.0/../../../../arm-eabi/lib/thumb\libg.a(lib_a-strlcpy.o)
                0x0200bcbc                strlcpy
 .text          0x0200bd04       0x10 c:/devkitpro/devkitarm/bin/../lib/gcc/arm-eabi/4.7.0/../../../../arm-eabi/lib/thumb\libg.a(lib_a-strlen.o)
                0x0200bd04                strlen
 .text          0x0200bd14       0x60 c:/devkitpro/devkitarm/bin/../lib/gcc/arm-eabi/4.7.0/../../../../arm-eabi/lib/thumb\libg.a(lib_a-strncasecmp.o)
                0x0200bd14                strncasecmp
 .text          0x0200bd74       0xbc c:/devkitpro/devkitarm/bin/../lib/gcc/arm-eabi/4.7.0/../../../../arm-eabi/lib/thumb\libg.a(lib_a-strncmp.o)
                0x0200bd74                strncmp
 .text          0x0200be30       0x60 c:/devkitpro/devkitarm/bin/../lib/gcc/arm-eabi/4.7.0/../../../../arm-eabi/lib/thumb\libg.a(lib_a-strncpy.o)
                0x0200be30                strncpy
 .text          0x0200be90      0x190 c:/devkitpro/devkitarm/bin/../lib/gcc/arm-eabi/4.7.0/../../../../arm-eabi/lib/thumb\libg.a(lib_a-strtol.o)
                0x0200be90                _strtol_r
                0x0200c000                strtol
 .text          0x0200c020       0x1c c:/devkitpro/devkitarm/bin/../lib/gcc/arm-eabi/4.7.0/../../../../arm-eabi/lib/thumb\libg.a(lib_a-sysstat.o)
                0x0200c020                stat
 .text          0x0200c03c       0x30 c:/devkitpro/devkitarm/bin/../lib/gcc/arm-eabi/4.7.0/../../../../arm-eabi/lib/thumb\libg.a(lib_a-time.o)
                0x0200c03c                time
 .text          0x0200c06c        0x8 c:/devkitpro/devkitarm/bin/../lib/gcc/arm-eabi/4.7.0/../../../../arm-eabi/lib/thumb\libg.a(lib_a-tzlock.o)
                0x0200c06c                __tz_lock
                0x0200c070                __tz_unlock
 .text          0x0200c074        0x0 c:/devkitpro/devkitarm/bin/../lib/gcc/arm-eabi/4.7.0/../../../../arm-eabi/lib/thumb\libg.a(lib_a-tzvars.o)
 .text          0x0200c074      0x2a4 c:/devkitpro/devkitarm/bin/../lib/gcc/arm-eabi/4.7.0/../../../../arm-eabi/lib/thumb\libg.a(lib_a-wctomb_r.o)
                0x0200c074                __utf8_wctomb
                0x0200c128                _wctomb_r
                0x0200c160                __ascii_wctomb
                0x0200c180                __sjis_wctomb
                0x0200c1fc                __eucjp_wctomb
                0x0200c298                __jis_wctomb
 .text          0x0200c318       0x10 c:/devkitpro/devkitarm/bin/../lib/gcc/arm-eabi/4.7.0/../../../../arm-eabi/lib/thumb\libg.a(lib_a-ctype_.o)
                0x0200c318                __set_ctype
 .text          0x0200c328      0x238 c:/devkitpro/devkitarm/bin/../lib/gcc/arm-eabi/4.7.0/../../../../arm-eabi/lib/thumb\libg.a(lib_a-freer.o)
                0x0200c328                _malloc_trim_r
                0x0200c3cc                _free_r
 .text          0x0200c560       0xa8 c:/devkitpro/devkitarm/bin/../lib/gcc/arm-eabi/4.7.0/../../../../arm-eabi/lib/thumb\libg.a(lib_a-getenv_r.o)
                0x0200c560                _findenv_r
                0x0200c5f8                _getenv_r
 .text          0x0200c608        0x8 c:/devkitpro/devkitarm/bin/../lib/gcc/arm-eabi/4.7.0/../../../../arm-eabi/lib/thumb\libg.a(lib_a-gettzinfo.o)
                0x0200c608                __gettzinfo
 .text          0x0200c610        0x0 c:/devkitpro/devkitarm/bin/../lib/gcc/arm-eabi/4.7.0/../../../../arm-eabi/lib/thumb\libg.a(lib_a-environ.o)
 .text          0x0200c610        0x8 c:/devkitpro/devkitarm/bin/../lib/gcc/arm-eabi/4.7.0/../../../../arm-eabi/lib/thumb\libg.a(lib_a-envlock.o)
                0x0200c610                __env_lock
                0x0200c614                __env_unlock
 .text          0x0200c618       0x54 c:/devkitpro/devkitarm/bin/../lib/gcc/arm-eabi/4.7.0/../../../../arm-eabi/lib/thumb\libsysbase.a(sbrk.o)
                0x0200c618                _sbrk_r
 .text          0x0200c66c       0x40 c:/devkitpro/devkitarm/bin/../lib/gcc/arm-eabi/4.7.0/../../../../arm-eabi/lib/thumb\libsysbase.a(stat.o)
                0x0200c66c                _stat_r
 .text          0x0200c6ac       0x44 c:/devkitpro/devkitarm/bin/../lib/gcc/arm-eabi/4.7.0/../../../../arm-eabi/lib/thumb\libsysbase.a(times.o)
                0x0200c6ac                _times
                0x0200c6c0                _times_r
                0x0200c6c8                _gettimeofday_r
 .text          0x0200c6f0        0x0 c:/devkitpro/devkitarm/bin/../lib/gcc/arm-eabi/4.7.0/../../../../arm-eabi/lib/thumb\libsysbase.a(malloc_vars.o)
 .text          0x0200c6f0       0x4c c:/devkitpro/devkitarm/bin/../lib/gcc/arm-eabi/4.7.0/../../../../arm-eabi/lib/thumb\libsysbase.a(build_argv.o)
                0x0200c6f0                build_argv
 .text          0x0200c73c        0x0 c:/devkitpro/devkitarm/bin/../lib/gcc/arm-eabi/4.7.0/../../../../arm-eabi/lib/thumb\libsysbase.a(syscall_support.o)
 .text          0x0200c73c      0x340 c:/devkitpro/devkitarm/bin/../lib/gcc/arm-eabi/4.7.0/../../../../arm-eabi/lib/thumb\libsysbase.a(dirent.o)
                0x0200c7bc                opendir
                0x0200c868                closedir
                0x0200c8c8                readdir
                0x0200c96c                readdir_r
                0x0200c9f8                rewinddir
                0x0200ca10                seekdir
                0x0200ca64                telldir
 .text          0x0200ca7c      0x144 c:/devkitpro/devkitarm/bin/../lib/gcc/arm-eabi/4.7.0/../../../../arm-eabi/lib/thumb\libsysbase.a(iosupport.o)
                0x0200ca7c                setDefaultDevice
                0x0200ca90                FindDevice
                0x0200cb00                RemoveDevice
                0x0200cb24                AddDevice
                0x0200cba0                GetDeviceOpTab
 .text          0x0200cbc0      0x11c c:/devkitpro/devkitarm/bin/../lib/gcc/arm-eabi/4.7.0/thumb\libgcc.a(_udivsi3.o)
                0x0200cbc0                __aeabi_uidiv
                0x0200cbc0                __udivsi3
                0x0200ccbc                __aeabi_uidivmod
 .text          0x0200ccdc        0xc c:/devkitpro/devkitarm/bin/../lib/gcc/arm-eabi/4.7.0/../../../../arm-eabi/lib/thumb\libg.a(lib_a-errno.o)
                0x0200ccdc                __errno
 .text          0x0200cce8       0x34 c:/devkitpro/devkitarm/bin/../lib/gcc/arm-eabi/4.7.0/../../../../arm-eabi/lib/thumb\libg.a(lib_a-strnlen.o)
                0x0200cce8                strnlen
 .text          0x0200cd1c        0x0 c:/devkitpro/devkitarm/bin/../lib/gcc/arm-eabi/4.7.0/thumb/crtend.o
 .text          0x0200cd1c        0x0 c:/devkitpro/devkitarm/bin/../lib/gcc/arm-eabi/4.7.0/thumb/crtn.o
 *(.text.*)
 .text.startup  0x0200cd1c       0x10 main.o
                0x0200cd1c                main
 *fill*         0x0200cd2c        0x4 ff
 .text.startup.stub
                0x0200cd30       0x78 linker stubs
 *(.stub)
 *(.gnu.warning)
 *(.gnu.linkonce.t*)
 *(.glue_7)
 .glue_7        0x00000000        0x0 linker stubs
 *(.glue_7t)
 .glue_7t       0x00000000        0x0 linker stubs
                0x0200cda8                . = ALIGN (0x4)

.vfp11_veneer   0x0200cdb0        0x0
 .vfp11_veneer  0x00000000        0x0 linker stubs

.v4_bx          0x0200cdb0        0x0
 .v4_bx         0x00000000        0x0 linker stubs

.iplt           0x0200cdb0        0x0
 .iplt          0x00000000        0x0 c:/devkitpro/devkitarm/bin/../lib/gcc/arm-eabi/4.7.0/../../../../arm-eabi/lib/thumb/ds_arm9_crt0.o

.fini           0x0200cdb0        0xc
 *(.fini)
 .fini          0x0200cdb0        0x4 c:/devkitpro/devkitarm/bin/../lib/gcc/arm-eabi/4.7.0/thumb/crti.o
                0x0200cdb0                _fini
 .fini          0x0200cdb4        0x8 c:/devkitpro/devkitarm/bin/../lib/gcc/arm-eabi/4.7.0/thumb/crtn.o
                0x0200cdbc                __text_end = .

.rodata         0x0200cdbc    0x41c9c
 *(.rodata)
 .rodata        0x0200cdbc    0x18004 demarrage_bas_Bitmap.o
                0x0200cdbc                demarrage_bas_Bitmap
                0x02024dbc                demarrage_bas_Bitmap_end
                0x02024dbc                demarrage_bas_Bitmap_size
 .rodata        0x02024dc0    0x18004 demarrage_haut_Bitmap.o
                0x02024dc0                demarrage_haut_Bitmap
                0x0203cdc0                demarrage_haut_Bitmap_end
                0x0203cdc0                demarrage_haut_Bitmap_size
 .rodata        0x0203cdc4      0x204 joueur_b_Pal.o
                0x0203cdc4                joueur_b_Pal
                0x0203cfc4                joueur_b_Pal_end
                0x0203cfc4                joueur_b_Pal_size
 .rodata        0x0203cfc8      0x104 joueur_b_Sprite.o
                0x0203cfc8                joueur_b_Sprite
                0x0203d0c8                joueur_b_Sprite_end
                0x0203d0c8                joueur_b_Sprite_size
 .rodata        0x0203d0cc      0x204 joueur_d_Pal.o
                0x0203d0cc                joueur_d_Pal
                0x0203d2cc                joueur_d_Pal_size
                0x0203d2cc                joueur_d_Pal_end
 .rodata        0x0203d2d0      0x104 joueur_d_Sprite.o
                0x0203d2d0                joueur_d_Sprite
                0x0203d3d0                joueur_d_Sprite_size
                0x0203d3d0                joueur_d_Sprite_end
 .rodata        0x0203d3d4      0x204 joueur_g_Pal.o
                0x0203d3d4                joueur_g_Pal
                0x0203d5d4                joueur_g_Pal_size
                0x0203d5d4                joueur_g_Pal_end
 .rodata        0x0203d5d8      0x104 joueur_g_Sprite.o
                0x0203d5d8                joueur_g_Sprite
                0x0203d6d8                joueur_g_Sprite_end
                0x0203d6d8                joueur_g_Sprite_size
 .rodata        0x0203d6dc      0x204 joueur_h_Pal.o
                0x0203d6dc                joueur_h_Pal
                0x0203d8dc                joueur_h_Pal_size
                0x0203d8dc                joueur_h_Pal_end
 .rodata        0x0203d8e0      0x104 joueur_h_Sprite.o
                0x0203d8e0                joueur_h_Sprite
                0x0203d9e0                joueur_h_Sprite_end
                0x0203d9e0                joueur_h_Sprite_size
 .rodata        0x0203d9e4      0x204 pacman_Pal.o
                0x0203d9e4                pacman_Pal
                0x0203dbe4                pacman_Pal_size
                0x0203dbe4                pacman_Pal_end
 .rodata        0x0203dbe8      0x404 pacman_Sprite.o
                0x0203dbe8                pacman_Sprite
                0x0203dfe8                pacman_Sprite_size
                0x0203dfe8                pacman_Sprite_end
 .rodata        0x0203dfec      0x204 sprite_00_Pal.o
                0x0203dfec                sprite_00_Pal
                0x0203e1ec                sprite_00_Pal_size
                0x0203e1ec                sprite_00_Pal_end
 .rodata        0x0203e1f0      0x204 sprite_00_Sprite.o
                0x0203e1f0                sprite_00_Sprite
                0x0203e3f0                sprite_00_Sprite_size
                0x0203e3f0                sprite_00_Sprite_end
 .rodata        0x0203e3f4      0x204 sprite_01_Pal.o
                0x0203e3f4                sprite_01_Pal
                0x0203e5f4                sprite_01_Pal_end
                0x0203e5f4                sprite_01_Pal_size
 .rodata        0x0203e5f8      0x204 sprite_01_Sprite.o
                0x0203e5f8                sprite_01_Sprite
                0x0203e7f8                sprite_01_Sprite_end
                0x0203e7f8                sprite_01_Sprite_size
 .rodata        0x0203e7fc      0x204 sprite_02_Pal.o
                0x0203e7fc                sprite_02_Pal
                0x0203e9fc                sprite_02_Pal_size
                0x0203e9fc                sprite_02_Pal_end
 .rodata        0x0203ea00      0x204 sprite_02_Sprite.o
                0x0203ea00                sprite_02_Sprite
                0x0203ec00                sprite_02_Sprite_size
                0x0203ec00                sprite_02_Sprite_end
 .rodata        0x0203ec04      0x204 sprite_03_Pal.o
                0x0203ec04                sprite_03_Pal
                0x0203ee04                sprite_03_Pal_size
                0x0203ee04                sprite_03_Pal_end
 .rodata        0x0203ee08      0x204 sprite_03_Sprite.o
                0x0203ee08                sprite_03_Sprite
                0x0203f008                sprite_03_Sprite_end
                0x0203f008                sprite_03_Sprite_size
 .rodata        0x0203f00c      0x204 sprite_10_Pal.o
                0x0203f00c                sprite_10_Pal
                0x0203f20c                sprite_10_Pal_size
                0x0203f20c                sprite_10_Pal_end
 .rodata        0x0203f210      0x204 sprite_10_Sprite.o
                0x0203f210                sprite_10_Sprite
                0x0203f410                sprite_10_Sprite_end
                0x0203f410                sprite_10_Sprite_size
 .rodata        0x0203f414      0x204 sprite_11_Pal.o
                0x0203f414                sprite_11_Pal
                0x0203f614                sprite_11_Pal_size
                0x0203f614                sprite_11_Pal_end
 .rodata        0x0203f618      0x204 sprite_11_Sprite.o
                0x0203f618                sprite_11_Sprite
                0x0203f818                sprite_11_Sprite_size
                0x0203f818                sprite_11_Sprite_end
 .rodata        0x0203f81c      0x204 sprite_12_Pal.o
                0x0203f81c                sprite_12_Pal
                0x0203fa1c                sprite_12_Pal_size
                0x0203fa1c                sprite_12_Pal_end
 .rodata        0x0203fa20      0x204 sprite_12_Sprite.o
                0x0203fa20                sprite_12_Sprite
                0x0203fc20                sprite_12_Sprite_end
                0x0203fc20                sprite_12_Sprite_size
 .rodata        0x0203fc24      0x204 sprite_13_Pal.o
                0x0203fc24                sprite_13_Pal
                0x0203fe24                sprite_13_Pal_size
                0x0203fe24                sprite_13_Pal_end
 .rodata        0x0203fe28      0x204 sprite_13_Sprite.o
                0x0203fe28                sprite_13_Sprite
                0x02040028                sprite_13_Sprite_end
                0x02040028                sprite_13_Sprite_size
 .rodata        0x0204002c      0x204 sprite_20_Pal.o
                0x0204002c                sprite_20_Pal
                0x0204022c                sprite_20_Pal_size
                0x0204022c                sprite_20_Pal_end
 .rodata        0x02040230      0x204 sprite_20_Sprite.o
                0x02040230                sprite_20_Sprite
                0x02040430                sprite_20_Sprite_end
                0x02040430                sprite_20_Sprite_size
 .rodata        0x02040434      0x204 sprite_21_Pal.o
                0x02040434                sprite_21_Pal
                0x02040634                sprite_21_Pal_end
                0x02040634                sprite_21_Pal_size
 .rodata        0x02040638      0x204 sprite_21_Sprite.o
                0x02040638                sprite_21_Sprite
                0x02040838                sprite_21_Sprite_size
                0x02040838                sprite_21_Sprite_end
 .rodata        0x0204083c      0x204 sprite_22_Pal.o
                0x0204083c                sprite_22_Pal
                0x02040a3c                sprite_22_Pal_end
                0x02040a3c                sprite_22_Pal_size
 .rodata        0x02040a40      0x204 sprite_22_Sprite.o
                0x02040a40                sprite_22_Sprite
                0x02040c40                sprite_22_Sprite_size
                0x02040c40                sprite_22_Sprite_end
 .rodata        0x02040c44      0x204 sprite_23_Pal.o
                0x02040c44                sprite_23_Pal
                0x02040e44                sprite_23_Pal_end
                0x02040e44                sprite_23_Pal_size
 .rodata        0x02040e48      0x204 sprite_23_Sprite.o
                0x02040e48                sprite_23_Sprite
                0x02041048                sprite_23_Sprite_size
                0x02041048                sprite_23_Sprite_end
 .rodata        0x0204104c      0x204 sprite_30_Pal.o
                0x0204104c                sprite_30_Pal
                0x0204124c                sprite_30_Pal_end
                0x0204124c                sprite_30_Pal_size
 .rodata        0x02041250      0x204 sprite_30_Sprite.o
                0x02041250                sprite_30_Sprite
                0x02041450                sprite_30_Sprite_end
                0x02041450                sprite_30_Sprite_size
 .rodata        0x02041454      0x204 sprite_31_Pal.o
                0x02041454                sprite_31_Pal
                0x02041654                sprite_31_Pal_end
                0x02041654                sprite_31_Pal_size
 .rodata        0x02041658      0x204 sprite_31_Sprite.o
                0x02041658                sprite_31_Sprite
                0x02041858                sprite_31_Sprite_end
                0x02041858                sprite_31_Sprite_size
 .rodata        0x0204185c      0x204 sprite_32_Pal.o
                0x0204185c                sprite_32_Pal
                0x02041a5c                sprite_32_Pal_size
                0x02041a5c                sprite_32_Pal_end
 .rodata        0x02041a60      0x204 sprite_32_Sprite.o
                0x02041a60                sprite_32_Sprite
                0x02041c60                sprite_32_Sprite_end
                0x02041c60                sprite_32_Sprite_size
 .rodata        0x02041c64       0x40 c:/devkitPro/PAlib/lib\libpa9.a(PA_Inits.o)
                0x02041c64                winfades
 .rodata        0x02041ca4      0x400 c:/devkitPro/PAlib/lib\libpa9.a(PA_Math.o)
                0x02041ca4                PA_SIN
 .rodata        0x020420a4       0x30 c:/devkitPro/PAlib/lib\libpa9.a(PA_Sprite.o)
                0x020420a4                PA_obj_sizes
                0x020420bc                PA_size
 .rodata        0x020420d4       0x20 c:/devkitPro/PAlib/lib\libpa9.a(PA_TiledFont.o)
                0x020420d4                PA_TiledFont
 .rodata        0x020420f4       0x20 c:/devkitPro/PAlib/lib\libpa9.a(PA_BmpFont0.o)
                0x020420f4                PA_BmpFont0
 .rodata        0x02042114       0x20 c:/devkitPro/PAlib/lib\libpa9.a(PA_BmpFont1.o)
                0x02042114                PA_BmpFont1
 .rodata        0x02042134       0x20 c:/devkitPro/PAlib/lib\libpa9.a(PA_BmpFont2.o)
                0x02042134                PA_BmpFont2
 .rodata        0x02042154       0x20 c:/devkitPro/PAlib/lib\libpa9.a(PA_BmpFont3.o)
                0x02042154                PA_BmpFont3
 .rodata        0x02042174       0x20 c:/devkitPro/PAlib/lib\libpa9.a(PA_BmpFont4.o)
                0x02042174                PA_BmpFont4
 .rodata        0x02042194      0x604 c:/devkitPro/PAlib/lib\libpa9.a(PA_TiledFont_Map.bin.o)
                0x02042194                PA_TiledFont_Map
                0x02042794                PA_TiledFont_Map_size
                0x02042794                PA_TiledFont_Map_end
 .rodata        0x02042798      0x204 c:/devkitPro/PAlib/lib\libpa9.a(PA_TiledFont_Pal.bin.o)
                0x02042798                PA_TiledFont_Pal
                0x02042998                PA_TiledFont_Pal_end
                0x02042998                PA_TiledFont_Pal_size
 .rodata        0x0204299c     0x33c4 c:/devkitPro/PAlib/lib\libpa9.a(PA_TiledFont_Tiles.bin.o)
                0x0204299c                PA_TiledFont_Tiles
                0x02045d5c                PA_TiledFont_Tiles_size
                0x02045d5c                PA_TiledFont_Tiles_end
 .rodata        0x02045d60      0x204 c:/devkitPro/PAlib/lib\libpa9.a(PA_BmpFont0_Map.bin.o)
                0x02045d60                PA_BmpFont0_Map
                0x02045f60                PA_BmpFont0_Map_end
                0x02045f60                PA_BmpFont0_Map_size
 .rodata        0x02045f64      0x104 c:/devkitPro/PAlib/lib\libpa9.a(PA_BmpFont0_Sizes.bin.o)
                0x02045f64                PA_BmpFont0_Sizes
                0x02046064                PA_BmpFont0_Sizes_size
                0x02046064                PA_BmpFont0_Sizes_end
 .rodata        0x02046068      0x324 c:/devkitPro/PAlib/lib\libpa9.a(PA_BmpFont0_Tiles.bin.o)
                0x02046068                PA_BmpFont0_Tiles
                0x02046388                PA_BmpFont0_Tiles_size
                0x02046388                PA_BmpFont0_Tiles_end
 .rodata        0x0204638c      0x204 c:/devkitPro/PAlib/lib\libpa9.a(PA_BmpFont1_Map.bin.o)
                0x0204638c                PA_BmpFont1_Map
                0x0204658c                PA_BmpFont1_Map_end
                0x0204658c                PA_BmpFont1_Map_size
 .rodata        0x02046590      0x104 c:/devkitPro/PAlib/lib\libpa9.a(PA_BmpFont1_Sizes.bin.o)
                0x02046590                PA_BmpFont1_Sizes
                0x02046690                PA_BmpFont1_Sizes_size
                0x02046690                PA_BmpFont1_Sizes_end
 .rodata        0x02046694      0x34c c:/devkitPro/PAlib/lib\libpa9.a(PA_BmpFont1_Tiles.bin.o)
                0x02046694                PA_BmpFont1_Tiles
                0x020469dc                PA_BmpFont1_Tiles_end
                0x020469dc                PA_BmpFont1_Tiles_size
 .rodata        0x020469e0      0x804 c:/devkitPro/PAlib/lib\libpa9.a(PA_BmpFont2_Map.bin.o)
                0x020469e0                PA_BmpFont2_Map
                0x020471e0                PA_BmpFont2_Map_size
                0x020471e0                PA_BmpFont2_Map_end
 .rodata        0x020471e4      0x104 c:/devkitPro/PAlib/lib\libpa9.a(PA_BmpFont2_Sizes.bin.o)
                0x020471e4                PA_BmpFont2_Sizes
                0x020472e4                PA_BmpFont2_Sizes_end
                0x020472e4                PA_BmpFont2_Sizes_size
 .rodata        0x020472e8      0x39c c:/devkitPro/PAlib/lib\libpa9.a(PA_BmpFont2_Tiles.bin.o)
                0x020472e8                PA_BmpFont2_Tiles
                0x02047680                PA_BmpFont2_Tiles_size
                0x02047680                PA_BmpFont2_Tiles_end
 .rodata        0x02047684      0x804 c:/devkitPro/PAlib/lib\libpa9.a(PA_BmpFont3_Map.bin.o)
                0x02047684                PA_BmpFont3_Map
                0x02047e84                PA_BmpFont3_Map_end
                0x02047e84                PA_BmpFont3_Map_size
 .rodata        0x02047e88      0x104 c:/devkitPro/PAlib/lib\libpa9.a(PA_BmpFont3_Sizes.bin.o)
                0x02047e88                PA_BmpFont3_Sizes
                0x02047f88                PA_BmpFont3_Sizes_end
                0x02047f88                PA_BmpFont3_Sizes_size
 .rodata        0x02047f8c      0x624 c:/devkitPro/PAlib/lib\libpa9.a(PA_BmpFont3_Tiles.bin.o)
                0x02047f8c                PA_BmpFont3_Tiles
                0x020485ac                PA_BmpFont3_Tiles_end
                0x020485ac                PA_BmpFont3_Tiles_size
 .rodata        0x020485b0      0x804 c:/devkitPro/PAlib/lib\libpa9.a(PA_BmpFont4_Map.bin.o)
                0x020485b0                PA_BmpFont4_Map
                0x02048db0                PA_BmpFont4_Map_size
                0x02048db0                PA_BmpFont4_Map_end
 .rodata        0x02048db4      0x104 c:/devkitPro/PAlib/lib\libpa9.a(PA_BmpFont4_Sizes.bin.o)
                0x02048db4                PA_BmpFont4_Sizes
                0x02048eb4                PA_BmpFont4_Sizes_end
                0x02048eb4                PA_BmpFont4_Sizes_size
 .rodata        0x02048eb8      0x834 c:/devkitPro/PAlib/lib\libpa9.a(PA_BmpFont4_Tiles.bin.o)
                0x02048eb8                PA_BmpFont4_Tiles
                0x020496e8                PA_BmpFont4_Tiles_size
                0x020496e8                PA_BmpFont4_Tiles_end
 .rodata        0x020496ec       0xf0 c:/devkitPro/PAlib/lib\libpa9.a(PA_Keyboard.o)
                0x020496ec                PA_Keyboard
 .rodata        0x020497dc     0x2000 c:/devkitPro/PAlib/lib\libpa9.a(keyboard.map.o)
                0x020497dc                keyboard_Map
 .rodata        0x0204b7dc       0x20 c:/devkitPro/PAlib/lib\libpa9.a(keyboard.pal.o)
                0x0204b7dc                keyboard_Palette
 .rodata        0x0204b7fc     0x28a0 c:/devkitPro/PAlib/lib\libpa9.a(keyboard.raw.o)
                0x0204b7fc                keyboard_Tiles
 .rodata        0x0204e09c        0x4 c:/devkitpro/devkitarm/bin/../lib/gcc/arm-eabi/4.7.0/../../../../arm-eabi/lib/thumb\libg.a(lib_a-impure.o)
                0x0204e09c                _global_impure_ptr
 .rodata        0x0204e0a0       0xf0 c:/devkitpro/devkitarm/bin/../lib/gcc/arm-eabi/4.7.0/../../../../arm-eabi/lib/thumb\libg.a(lib_a-locale.o)
 .rodata        0x0204e190       0xa8 c:/devkitpro/devkitarm/bin/../lib/gcc/arm-eabi/4.7.0/../../../../arm-eabi/lib/thumb\libg.a(lib_a-mbtowc_r.o)
 .rodata        0x0204e238       0x68 c:/devkitpro/devkitarm/bin/../lib/gcc/arm-eabi/4.7.0/../../../../arm-eabi/lib/thumb\libg.a(lib_a-mktm_r.o)
 .rodata        0x0204e2a0      0x104 c:/devkitpro/devkitarm/bin/../lib/gcc/arm-eabi/4.7.0/../../../../arm-eabi/lib/thumb\libg.a(lib_a-ctype_.o)
                0x0204e2a0                _ctype_
 .rodata        0x0204e3a4       0x64 c:/devkitpro/devkitarm/bin/../lib/gcc/arm-eabi/4.7.0/../../../../arm-eabi/lib/thumb\libsysbase.a(iosupport.o)
                0x0204e3a4                dotab_stdnull
 *all.rodata*(*)
 *(.roda)
 *(.rodata.*)
 .rodata.str1.4
                0x0204e408      0x18f c:/devkitPro/PAlib/lib\libpa9.a(PA_BgTiles.o)
                                0x190 (size before relaxing)
 *fill*         0x0204e597        0x1 ff
 .rodata.str1.4
                0x0204e598       0x26 c:/devkitPro/PAlib/lib\libpa9.a(PA_Error.o)
                                 0x28 (size before relaxing)
 *fill*         0x0204e5be        0x2 ff
 .rodata.str1.4
                0x0204e5c0        0x2 c:/devkitPro/PAlib/lib\libpa9.a(PA_Inits.o)
                                  0x4 (size before relaxing)
 *fill*         0x0204e5c2        0x2 ff
 .rodata.str1.4
                0x0204e5c4      0x234 c:/devkitPro/PAlib/lib\libpa9.a(PA_Sprite.o)
 .rodata.str1.4
                0x0204e7f8        0xa c:/devkitPro/PAlib/lib\libpa9.a(PA_Stuff.o)
                                  0xc (size before relaxing)
 *fill*         0x0204e802        0x2 ff
 .rodata.str1.4
                0x0204e804      0x128 c:/devkitPro/PAlib/lib\libpa9.a(PA_NewBg.o)
 .rodata.str1.4
                0x00000000        0x4 c:/devkitpro/devkitarm/bin/../lib/gcc/arm-eabi/4.7.0/../../../../arm-eabi/lib/thumb\libg.a(lib_a-impure.o)
 .rodata.str1.4
                0x0204e92c      0x120 c:/devkitpro/devkitarm/bin/../lib/gcc/arm-eabi/4.7.0/../../../../arm-eabi/lib/thumb\libg.a(lib_a-locale.o)
                                0x130 (size before relaxing)
 .rodata.str1.4
                0x0204ea4c        0x4 c:/devkitpro/devkitarm/bin/../lib/gcc/arm-eabi/4.7.0/../../../../arm-eabi/lib/thumb\libg.a(lib_a-tzvars.o)
 .rodata.str1.4
                0x0204ea50        0x8 c:/devkitpro/devkitarm/bin/../lib/gcc/arm-eabi/4.7.0/../../../../arm-eabi/lib/thumb\libsysbase.a(iosupport.o)
 *(.gnu.linkonce.r*)
                0x0204ea58                . = ALIGN (0x4)

.rel.dyn        0x0204ea58        0x0
 .rel.iplt      0x00000000        0x0 c:/devkitpro/devkitarm/bin/../lib/gcc/arm-eabi/4.7.0/../../../../arm-eabi/lib/thumb/ds_arm9_crt0.o

.ARM.extab
 *(.ARM.extab* .gnu.linkonce.armextab.*)
                0x0204ea58                __exidx_start = .

ARM.exidx
 *(.ARM.exidx* .gnu.linkonce.armexidx.*)
                0x0204ea58                __exidx_end = .
                0x0204ea58                . = ALIGN (0x4)
                0x0204ea58                PROVIDE (__preinit_array_start, .)

.preinit_array
 *(.preinit_array)
                0x0204ea58                PROVIDE (__preinit_array_end, .)
                0x0204ea58                PROVIDE (__init_array_start, .)

.init_array     0x0204ea58        0x4
 *(SORT(.init_array.*))
 *(.init_array)
 .init_array    0x0204ea58        0x4 c:/devkitpro/devkitarm/bin/../lib/gcc/arm-eabi/4.7.0/thumb/crtbegin.o
                0x0204ea5c                PROVIDE (__init_array_end, .)
                0x0204ea5c                PROVIDE (__fini_array_start, .)

.fini_array     0x0204ea5c        0x4
 *(.fini_array)
 .fini_array    0x0204ea5c        0x4 c:/devkitpro/devkitarm/bin/../lib/gcc/arm-eabi/4.7.0/thumb/crtbegin.o
 *(SORT(.fini_array.*))
                0x0204ea60                PROVIDE (__fini_array_end, .)

.ctors          0x0204ea60        0x0
 *crtbegin.o(.ctors)
 *(EXCLUDE_FILE(*crtend.o) .ctors)
 *(SORT(.ctors.*))
 *(.ctors)
                0x0204ea60                . = ALIGN (0x4)

.dtors          0x0204ea60        0x0
 *crtbegin.o(.dtors)
 *(EXCLUDE_FILE(*crtend.o) .dtors)
 *(SORT(.dtors.*))
 *(.dtors)
                0x0204ea60                . = ALIGN (0x4)

.eh_frame       0x0204ea60        0x4
 *(.eh_frame)
 .eh_frame      0x0204ea60        0x0 c:/devkitpro/devkitarm/bin/../lib/gcc/arm-eabi/4.7.0/thumb/crtbegin.o
 .eh_frame      0x0204ea60        0x4 c:/devkitpro/devkitarm/bin/../lib/gcc/arm-eabi/4.7.0/thumb/crtend.o
                0x0204ea64                . = ALIGN (0x4)

.gcc_except_table
                0x0204ea64        0x0
 *(.gcc_except_table)
                0x0204ea64                . = ALIGN (0x4)

.jcr            0x0204ea64        0x4
 *(.jcr)
 .jcr           0x0204ea64        0x0 c:/devkitpro/devkitarm/bin/../lib/gcc/arm-eabi/4.7.0/thumb/crtbegin.o
 .jcr           0x0204ea64        0x4 c:/devkitpro/devkitarm/bin/../lib/gcc/arm-eabi/4.7.0/thumb/crtend.o

.got
 *(.got.plt)
 *(.got)
 *(.rel.got)

.ewram          0x0204ea68        0x0
                0x0204ea68                __ewram_start = ABSOLUTE (.)
 *(.ewram)
 *ewram.*(.text)
                0x0204ea68                . = ALIGN (0x4)

.data           0x0204ea68     0x1310
                0x0204ea68                __data_start = ABSOLUTE (.)
 *(.data)
 .data          0x0204ea68        0x0 c:/devkitpro/devkitarm/bin/../lib/gcc/arm-eabi/4.7.0/../../../../arm-eabi/lib/thumb/ds_arm9_crt0.o
 .data          0x0204ea68        0x0 c:/devkitpro/devkitarm/bin/../lib/gcc/arm-eabi/4.7.0/thumb/crti.o
 .data          0x0204ea68        0x4 c:/devkitpro/devkitarm/bin/../lib/gcc/arm-eabi/4.7.0/thumb/crtbegin.o
                0x0204ea68                __dso_handle
 .data          0x0204ea6c        0x0 demarrage_bas_Bitmap.o
 .data          0x0204ea6c        0x0 demarrage_haut_Bitmap.o
 .data          0x0204ea6c        0x0 joueur_b_Pal.o
 .data          0x0204ea6c        0x0 joueur_b_Sprite.o
 .data          0x0204ea6c        0x0 joueur_d_Pal.o
 .data          0x0204ea6c        0x0 joueur_d_Sprite.o
 .data          0x0204ea6c        0x0 joueur_g_Pal.o
 .data          0x0204ea6c        0x0 joueur_g_Sprite.o
 .data          0x0204ea6c        0x0 joueur_h_Pal.o
 .data          0x0204ea6c        0x0 joueur_h_Sprite.o
 .data          0x0204ea6c        0x0 pacman_Pal.o
 .data          0x0204ea6c        0x0 pacman_Sprite.o
 .data          0x0204ea6c        0x0 sprite_00_Pal.o
 .data          0x0204ea6c        0x0 sprite_00_Sprite.o
 .data          0x0204ea6c        0x0 sprite_01_Pal.o
 .data          0x0204ea6c        0x0 sprite_01_Sprite.o
 .data          0x0204ea6c        0x0 sprite_02_Pal.o
 .data          0x0204ea6c        0x0 sprite_02_Sprite.o
 .data          0x0204ea6c        0x0 sprite_03_Pal.o
 .data          0x0204ea6c        0x0 sprite_03_Sprite.o
 .data          0x0204ea6c        0x0 sprite_10_Pal.o
 .data          0x0204ea6c        0x0 sprite_10_Sprite.o
 .data          0x0204ea6c        0x0 sprite_11_Pal.o
 .data          0x0204ea6c        0x0 sprite_11_Sprite.o
 .data          0x0204ea6c        0x0 sprite_12_Pal.o
 .data          0x0204ea6c        0x0 sprite_12_Sprite.o
 .data          0x0204ea6c        0x0 sprite_13_Pal.o
 .data          0x0204ea6c        0x0 sprite_13_Sprite.o
 .data          0x0204ea6c        0x0 sprite_20_Pal.o
 .data          0x0204ea6c        0x0 sprite_20_Sprite.o
 .data          0x0204ea6c        0x0 sprite_21_Pal.o
 .data          0x0204ea6c        0x0 sprite_21_Sprite.o
 .data          0x0204ea6c        0x0 sprite_22_Pal.o
 .data          0x0204ea6c        0x0 sprite_22_Sprite.o
 .data          0x0204ea6c        0x0 sprite_23_Pal.o
 .data          0x0204ea6c        0x0 sprite_23_Sprite.o
 .data          0x0204ea6c        0x0 sprite_30_Pal.o
 .data          0x0204ea6c        0x0 sprite_30_Sprite.o
 .data          0x0204ea6c        0x0 sprite_31_Pal.o
 .data          0x0204ea6c        0x0 sprite_31_Sprite.o
 .data          0x0204ea6c        0x0 sprite_32_Pal.o
 .data          0x0204ea6c        0x0 sprite_32_Sprite.o
 .data          0x0204ea6c        0x0 main.o
 .data          0x0204ea6c      0x584 procedures.o
                0x0204ea6c                mesGrilles
                0x0204efec                sprite_mur
                0x0204efed                sprite_bonus
                0x0204efee                sprite_ghost
 .data          0x0204eff0        0x0 c:/devkitPro/PAlib/lib\libpa9.a(PA.o)
 .data          0x0204eff0       0x10 c:/devkitPro/PAlib/lib\libpa9.a(PA_BgTiles.o)
                0x0204eff0                charsetstart
                0x0204eff4                bg_place
                0x0204eff8                bg_sizes
 .data          0x0204f000        0x0 c:/devkitPro/PAlib/lib\libpa9.a(PA_Draw.o)
 .data          0x0204f000        0x0 c:/devkitPro/PAlib/lib\libpa9.a(PA_Draw16bit.o)
 .data          0x0204f000        0x0 c:/devkitPro/PAlib/lib\libpa9.a(PA_Error.o)
 .data          0x0204f000        0x0 c:/devkitPro/PAlib/lib\libpa9.a(PA_Inits.o)
 .data          0x0204f000       0x14 c:/devkitPro/PAlib/lib\libpa9.a(PA_Interrupt.o)
                0x0204f000                SpriteVBL
                0x0204f004                MotionVBL
                0x0204f008                GHPadVBL
                0x0204f00c                PaddleVBL
                0x0204f010                CustomVBL
 .data          0x0204f014        0x0 c:/devkitPro/PAlib/lib\libpa9.a(PA_Keys.o)
 .data          0x0204f014        0x4 c:/devkitPro/PAlib/lib\libpa9.a(PA_Math.o)
                0x0204f014                RandomValue
 .data          0x0204f018        0x0 c:/devkitPro/PAlib/lib\libpa9.a(PA_Palette.o)
 .data          0x0204f018        0x0 c:/devkitPro/PAlib/lib\libpa9.a(PA_RTC.o)
 .data          0x0204f018      0x204 c:/devkitPro/PAlib/lib\libpa9.a(PA_Reco.o)
                0x0204f018                PA_UseGraffiti
                0x0204f01c                PA_Graffiti
 .data          0x0204f21c        0x4 c:/devkitPro/PAlib/lib\libpa9.a(PA_Sprite.o)
                0x0204f21c                VBLSpriteAnims
 .data          0x0204f220        0x0 c:/devkitPro/PAlib/lib\libpa9.a(PA_Stuff.o)
 .data          0x0204f220        0x0 c:/devkitPro/PAlib/lib\libpa9.a(PA_Text.o)
 .data          0x0204f220       0x7c c:/devkitPro/PAlib/lib\libpa9.a(PA_TextBits.o)
                0x0204f220                textinfo
                0x0204f224                pa_bittextdefaultsize
                0x0204f24c                bittext_maps
                0x0204f274                bittext_tiles_blank
 .data          0x0204f29c        0x0 c:/devkitPro/PAlib/lib\libpa9.a(PA_TiledFont.o)
 .data          0x0204f29c        0x0 c:/devkitPro/PAlib/lib\libpa9.a(PA_BmpFont0.o)
 .data          0x0204f29c        0x0 c:/devkitPro/PAlib/lib\libpa9.a(PA_BmpFont1.o)
 .data          0x0204f29c        0x0 c:/devkitPro/PAlib/lib\libpa9.a(PA_BmpFont2.o)
 .data          0x0204f29c        0x0 c:/devkitPro/PAlib/lib\libpa9.a(PA_BmpFont3.o)
 .data          0x0204f29c        0x0 c:/devkitPro/PAlib/lib\libpa9.a(PA_BmpFont4.o)
 .data          0x0204f29c        0x0 c:/devkitPro/PAlib/lib\libpa9.a(PA_TiledFont_Map.bin.o)
 .data          0x0204f29c        0x0 c:/devkitPro/PAlib/lib\libpa9.a(PA_TiledFont_Pal.bin.o)
 .data          0x0204f29c        0x0 c:/devkitPro/PAlib/lib\libpa9.a(PA_TiledFont_Tiles.bin.o)
 .data          0x0204f29c        0x0 c:/devkitPro/PAlib/lib\libpa9.a(PA_BmpFont0_Map.bin.o)
 .data          0x0204f29c        0x0 c:/devkitPro/PAlib/lib\libpa9.a(PA_BmpFont0_Sizes.bin.o)
 .data          0x0204f29c        0x0 c:/devkitPro/PAlib/lib\libpa9.a(PA_BmpFont0_Tiles.bin.o)
 .data          0x0204f29c        0x0 c:/devkitPro/PAlib/lib\libpa9.a(PA_BmpFont1_Map.bin.o)
 .data          0x0204f29c        0x0 c:/devkitPro/PAlib/lib\libpa9.a(PA_BmpFont1_Sizes.bin.o)
 .data          0x0204f29c        0x0 c:/devkitPro/PAlib/lib\libpa9.a(PA_BmpFont1_Tiles.bin.o)
 .data          0x0204f29c        0x0 c:/devkitPro/PAlib/lib\libpa9.a(PA_BmpFont2_Map.bin.o)
 .data          0x0204f29c        0x0 c:/devkitPro/PAlib/lib\libpa9.a(PA_BmpFont2_Sizes.bin.o)
 .data          0x0204f29c        0x0 c:/devkitPro/PAlib/lib\libpa9.a(PA_BmpFont2_Tiles.bin.o)
 .data          0x0204f29c        0x0 c:/devkitPro/PAlib/lib\libpa9.a(PA_BmpFont3_Map.bin.o)
 .data          0x0204f29c        0x0 c:/devkitPro/PAlib/lib\libpa9.a(PA_BmpFont3_Sizes.bin.o)
 .data          0x0204f29c        0x0 c:/devkitPro/PAlib/lib\libpa9.a(PA_BmpFont3_Tiles.bin.o)
 .data          0x0204f29c        0x0 c:/devkitPro/PAlib/lib\libpa9.a(PA_BmpFont4_Map.bin.o)
 .data          0x0204f29c        0x0 c:/devkitPro/PAlib/lib\libpa9.a(PA_BmpFont4_Sizes.bin.o)
 .data          0x0204f29c        0x0 c:/devkitPro/PAlib/lib\libpa9.a(PA_BmpFont4_Tiles.bin.o)
 .data          0x0204f29c        0x0 c:/devkitPro/PAlib/lib\libpa9.a(PA_Fifo.o)
 .data          0x0204f29c        0x0 c:/devkitPro/PAlib/lib\libpa9.a(PA_NewBg.o)
 .data          0x0204f29c        0x0 c:/devkitPro/PAlib/lib\libpa9.a(PA_PaletteEx.o)
 .data          0x0204f29c       0x3c c:/devkitPro/PAlib/lib\libpa9.a(PA_Text8bit.o)
                0x0204f29c                bit8_tiles
                0x0204f2c4                letters
 .data          0x0204f2d8       0x28 c:/devkitPro/PAlib/lib\libpa9.a(PA_16c.o)
                0x0204f2d8                c16_tiles
 .data          0x0204f300        0x0 c:/devkitPro/PAlib/lib\libpa9.a(PA_BgEasy.o)
 .data          0x0204f300        0x0 c:/devkitPro/PAlib/lib\libpa9.a(PA_BgLargeMap.o)
 .data          0x0204f300        0xc c:/devkitPro/PAlib/lib\libpa9.a(PA_BgRot.o)
                0x0204f300                rotbg_place
                0x0204f304                rotbg_sizes
 .data          0x0204f30c        0x0 c:/devkitPro/PAlib/lib\libpa9.a(PA_Keyboard.o)
 .data          0x0204f30c        0x0 c:/devkitPro/PAlib/lib\libpa9.a(keyboard.map.o)
 .data          0x0204f30c        0x0 c:/devkitPro/PAlib/lib\libpa9.a(keyboard.pal.o)
 .data          0x0204f30c        0x0 c:/devkitPro/PAlib/lib\libpa9.a(keyboard.raw.o)
 .data          0x0204f30c        0x3 c:/devkitPro/libnds/lib\libnds9.a(keys.o)
 .data          0x0204f30f        0x0 c:/devkitPro/libnds/lib\libnds9.a(system.o)
 .data          0x0204f30f        0x0 c:/devkitPro/libnds/lib\libnds9.a(touch.o)
 .data          0x0204f30f        0x0 c:/devkitPro/libnds/lib\libnds9.a(video.o)
 .data          0x0204f30f        0x0 c:/devkitPro/libnds/lib\libnds9.a(initSystem.o)
 *fill*         0x0204f30f        0x1 ff
 .data          0x0204f310       0x10 c:/devkitPro/libnds/lib\libnds9.a(fifosystem.o)
                0x0204f310                fifo_buffer_free
                0x0204f314                fifo_freewords
                0x0204f318                fifo_send_queue
                0x0204f31c                fifo_receive_queue
 .data          0x0204f320        0x0 c:/devkitPro/libnds/lib\libnds9.a(interrupts.o)
 .data          0x0204f320        0x0 c:/devkitPro/libnds/lib\libnds9.a(libnds_exit.arm.o)
 .data          0x0204f320        0x0 c:/devkitPro/libnds/lib\libnds9.a(dcache.o)
 .data          0x0204f320        0x0 c:/devkitPro/libnds/lib\libnds9.a(mpu_setup.o)
 .data          0x0204f320        0x0 c:/devkitPro/libnds/lib\libnds9.a(biosCalls.o)
 .data          0x0204f320        0x0 c:/devkitPro/libnds/lib\libnds9.a(interruptDispatcher.o)
 .data          0x0204f320        0x0 c:/devkitPro/libnds/lib\libnds9.a(swiSoftReset.o)
 .data          0x0204f320        0x0 c:/devkitpro/devkitarm/bin/../lib/gcc/arm-eabi/4.7.0/thumb\libgcc.a(_divsi3.o)
 .data          0x0204f320        0x0 c:/devkitpro/devkitarm/bin/../lib/gcc/arm-eabi/4.7.0/thumb\libgcc.a(_dvmd_tls.o)
 .data          0x0204f320        0x0 c:/devkitpro/devkitarm/bin/../lib/gcc/arm-eabi/4.7.0/thumb\libgcc.a(_arm_addsubdf3.o)
 .data          0x0204f320        0x0 c:/devkitpro/devkitarm/bin/../lib/gcc/arm-eabi/4.7.0/thumb\libgcc.a(_arm_muldivdf3.o)
 .data          0x0204f320        0x0 c:/devkitpro/devkitarm/bin/../lib/gcc/arm-eabi/4.7.0/thumb\libgcc.a(_arm_cmpdf2.o)
 .data          0x0204f320        0x0 c:/devkitpro/devkitarm/bin/../lib/gcc/arm-eabi/4.7.0/thumb\libgcc.a(_arm_fixdfsi.o)
 .data          0x0204f320        0x0 c:/devkitpro/devkitarm/bin/../lib/gcc/arm-eabi/4.7.0/thumb\libgcc.a(_muldi3.o)
 .data          0x0204f320        0x0 c:/devkitpro/devkitarm/bin/../lib/gcc/arm-eabi/4.7.0/../../../../arm-eabi/lib/thumb\libg.a(lib_a-gmtime.o)
 .data          0x0204f320        0x0 c:/devkitpro/devkitarm/bin/../lib/gcc/arm-eabi/4.7.0/../../../../arm-eabi/lib/thumb\libg.a(lib_a-gmtime_r.o)
 *fill*         0x0204f320        0x0 ff
 .data          0x0204f320      0x430 c:/devkitpro/devkitarm/bin/../lib/gcc/arm-eabi/4.7.0/../../../../arm-eabi/lib/thumb\libg.a(lib_a-impure.o)
                0x0204f320                _impure_ptr
 .data          0x0204f750        0x0 c:/devkitpro/devkitarm/bin/../lib/gcc/arm-eabi/4.7.0/../../../../arm-eabi/lib/thumb\libg.a(lib_a-init.o)
 .data          0x0204f750      0x17c c:/devkitpro/devkitarm/bin/../lib/gcc/arm-eabi/4.7.0/../../../../arm-eabi/lib/thumb\libg.a(lib_a-locale.o)
                0x0204f750                __default_locale
                0x0204f870                __mb_cur_max
 .data          0x0204f8cc        0x0 c:/devkitpro/devkitarm/bin/../lib/gcc/arm-eabi/4.7.0/../../../../arm-eabi/lib/thumb\libg.a(lib_a-malloc.o)
 .data          0x0204f8cc      0x410 c:/devkitpro/devkitarm/bin/../lib/gcc/arm-eabi/4.7.0/../../../../arm-eabi/lib/thumb\libg.a(lib_a-mallocr.o)
                0x0204f8cc                __malloc_av_
                0x0204fcd4                __malloc_sbrk_base
                0x0204fcd8                __malloc_trim_threshold
 .data          0x0204fcdc        0x4 c:/devkitpro/devkitarm/bin/../lib/gcc/arm-eabi/4.7.0/../../../../arm-eabi/lib/thumb\libg.a(lib_a-mbtowc_r.o)
                0x0204fcdc                __mbtowc
 .data          0x0204fce0        0x0 c:/devkitpro/devkitarm/bin/../lib/gcc/arm-eabi/4.7.0/../../../../arm-eabi/lib/thumb\libg.a(lib_a-memcpy-stub.o)
 .data          0x0204fce0        0x0 c:/devkitpro/devkitarm/bin/../lib/gcc/arm-eabi/4.7.0/../../../../arm-eabi/lib/thumb\libg.a(lib_a-mktm_r.o)
 .data          0x0204fce0        0x0 c:/devkitpro/devkitarm/bin/../lib/gcc/arm-eabi/4.7.0/../../../../arm-eabi/lib/thumb\libg.a(lib_a-mlock.o)
 .data          0x0204fce0        0x0 c:/devkitpro/devkitarm/bin/../lib/gcc/arm-eabi/4.7.0/../../../../arm-eabi/lib/thumb\libg.a(lib_a-strcasecmp.o)
 .data          0x0204fce0        0x0 c:/devkitpro/devkitarm/bin/../lib/gcc/arm-eabi/4.7.0/../../../../arm-eabi/lib/thumb\libg.a(lib_a-strcat.o)
 .data          0x0204fce0        0x0 c:/devkitpro/devkitarm/bin/../lib/gcc/arm-eabi/4.7.0/../../../../arm-eabi/lib/thumb\libg.a(lib_a-strchr.o)
 .data          0x0204fce0        0x0 c:/devkitpro/devkitarm/bin/../lib/gcc/arm-eabi/4.7.0/../../../../arm-eabi/lib/thumb\libg.a(lib_a-strcmp.o)
 .data          0x0204fce0        0x0 c:/devkitpro/devkitarm/bin/../lib/gcc/arm-eabi/4.7.0/../../../../arm-eabi/lib/thumb\libg.a(lib_a-strcpy.o)
 .data          0x0204fce0        0x0 c:/devkitpro/devkitarm/bin/../lib/gcc/arm-eabi/4.7.0/../../../../arm-eabi/lib/thumb\libg.a(lib_a-strlcpy.o)
 .data          0x0204fce0        0x0 c:/devkitpro/devkitarm/bin/../lib/gcc/arm-eabi/4.7.0/../../../../arm-eabi/lib/thumb\libg.a(lib_a-strlen.o)
 .data          0x0204fce0        0x0 c:/devkitpro/devkitarm/bin/../lib/gcc/arm-eabi/4.7.0/../../../../arm-eabi/lib/thumb\libg.a(lib_a-strncasecmp.o)
 .data          0x0204fce0        0x0 c:/devkitpro/devkitarm/bin/../lib/gcc/arm-eabi/4.7.0/../../../../arm-eabi/lib/thumb\libg.a(lib_a-strncmp.o)
 .data          0x0204fce0        0x0 c:/devkitpro/devkitarm/bin/../lib/gcc/arm-eabi/4.7.0/../../../../arm-eabi/lib/thumb\libg.a(lib_a-strncpy.o)
 .data          0x0204fce0        0x0 c:/devkitpro/devkitarm/bin/../lib/gcc/arm-eabi/4.7.0/../../../../arm-eabi/lib/thumb\libg.a(lib_a-strtol.o)
 .data          0x0204fce0        0x0 c:/devkitpro/devkitarm/bin/../lib/gcc/arm-eabi/4.7.0/../../../../arm-eabi/lib/thumb\libg.a(lib_a-sysstat.o)
 .data          0x0204fce0        0x0 c:/devkitpro/devkitarm/bin/../lib/gcc/arm-eabi/4.7.0/../../../../arm-eabi/lib/thumb\libg.a(lib_a-time.o)
 .data          0x0204fce0        0x0 c:/devkitpro/devkitarm/bin/../lib/gcc/arm-eabi/4.7.0/../../../../arm-eabi/lib/thumb\libg.a(lib_a-tzlock.o)
 .data          0x0204fce0        0x8 c:/devkitpro/devkitarm/bin/../lib/gcc/arm-eabi/4.7.0/../../../../arm-eabi/lib/thumb\libg.a(lib_a-tzvars.o)
                0x0204fce0                _tzname
 .data          0x0204fce8        0x4 c:/devkitpro/devkitarm/bin/../lib/gcc/arm-eabi/4.7.0/../../../../arm-eabi/lib/thumb\libg.a(lib_a-wctomb_r.o)
                0x0204fce8                __wctomb
 .data          0x0204fcec        0x4 c:/devkitpro/devkitarm/bin/../lib/gcc/arm-eabi/4.7.0/../../../../arm-eabi/lib/thumb\libg.a(lib_a-ctype_.o)
                0x0204fcec                __ctype_ptr__
 .data          0x0204fcf0        0x0 c:/devkitpro/devkitarm/bin/../lib/gcc/arm-eabi/4.7.0/../../../../arm-eabi/lib/thumb\libg.a(lib_a-freer.o)
 .data          0x0204fcf0        0x0 c:/devkitpro/devkitarm/bin/../lib/gcc/arm-eabi/4.7.0/../../../../arm-eabi/lib/thumb\libg.a(lib_a-getenv_r.o)
 .data          0x0204fcf0       0x40 c:/devkitpro/devkitarm/bin/../lib/gcc/arm-eabi/4.7.0/../../../../arm-eabi/lib/thumb\libg.a(lib_a-gettzinfo.o)
 .data          0x0204fd30        0x4 c:/devkitpro/devkitarm/bin/../lib/gcc/arm-eabi/4.7.0/../../../../arm-eabi/lib/thumb\libg.a(lib_a-environ.o)
                0x0204fd30                environ
 .data          0x0204fd34        0x0 c:/devkitpro/devkitarm/bin/../lib/gcc/arm-eabi/4.7.0/../../../../arm-eabi/lib/thumb\libg.a(lib_a-envlock.o)
 .data          0x0204fd34        0x0 c:/devkitpro/devkitarm/bin/../lib/gcc/arm-eabi/4.7.0/../../../../arm-eabi/lib/thumb\libsysbase.a(sbrk.o)
 .data          0x0204fd34        0x0 c:/devkitpro/devkitarm/bin/../lib/gcc/arm-eabi/4.7.0/../../../../arm-eabi/lib/thumb\libsysbase.a(stat.o)
 .data          0x0204fd34        0x0 c:/devkitpro/devkitarm/bin/../lib/gcc/arm-eabi/4.7.0/../../../../arm-eabi/lib/thumb\libsysbase.a(times.o)
 .data          0x0204fd34        0x0 c:/devkitpro/devkitarm/bin/../lib/gcc/arm-eabi/4.7.0/../../../../arm-eabi/lib/thumb\libsysbase.a(malloc_vars.o)
 .data          0x0204fd34        0x0 c:/devkitpro/devkitarm/bin/../lib/gcc/arm-eabi/4.7.0/../../../../arm-eabi/lib/thumb\libsysbase.a(build_argv.o)
 .data          0x0204fd34        0x0 c:/devkitpro/devkitarm/bin/../lib/gcc/arm-eabi/4.7.0/../../../../arm-eabi/lib/thumb\libsysbase.a(syscall_support.o)
 .data          0x0204fd34        0x0 c:/devkitpro/devkitarm/bin/../lib/gcc/arm-eabi/4.7.0/../../../../arm-eabi/lib/thumb\libsysbase.a(dirent.o)
 .data          0x0204fd34       0x44 c:/devkitpro/devkitarm/bin/../lib/gcc/arm-eabi/4.7.0/../../../../arm-eabi/lib/thumb\libsysbase.a(iosupport.o)
                0x0204fd38                devoptab_list
 .data          0x0204fd78        0x0 c:/devkitpro/devkitarm/bin/../lib/gcc/arm-eabi/4.7.0/thumb\libgcc.a(_udivsi3.o)
 .data          0x0204fd78        0x0 c:/devkitpro/devkitarm/bin/../lib/gcc/arm-eabi/4.7.0/../../../../arm-eabi/lib/thumb\libg.a(lib_a-errno.o)
 .data          0x0204fd78        0x0 c:/devkitpro/devkitarm/bin/../lib/gcc/arm-eabi/4.7.0/../../../../arm-eabi/lib/thumb\libg.a(lib_a-strnlen.o)
 .data          0x0204fd78        0x0 c:/devkitpro/devkitarm/bin/../lib/gcc/arm-eabi/4.7.0/thumb/crtend.o
 .data          0x0204fd78        0x0 c:/devkitpro/devkitarm/bin/../lib/gcc/arm-eabi/4.7.0/thumb/crtn.o
 *(.data.*)
 *(.gnu.linkonce.d*)
                0x0204fd78                . = ALIGN (0x4)
                0x0204fd78                __data_end = ABSOLUTE (.)
                0x0204fd78                __dtcm_lma = .
                0x0204fd78                __bss_vma = .

.igot.plt       0x0204fd78        0x0
 .igot.plt      0x00000000        0x0 c:/devkitpro/devkitarm/bin/../lib/gcc/arm-eabi/4.7.0/../../../../arm-eabi/lib/thumb/ds_arm9_crt0.o

.tm_clone_table
                0x0204fd78        0x0
 .tm_clone_table
                0x0204fd78        0x0 c:/devkitpro/devkitarm/bin/../lib/gcc/arm-eabi/4.7.0/thumb/crtbegin.o
 .tm_clone_table
                0x0204fd78        0x0 c:/devkitpro/devkitarm/bin/../lib/gcc/arm-eabi/4.7.0/thumb/crtend.o

.dtcm           0x0b000000        0x0 load address 0x0204fd78
 *(.dtcm)
 *(.dtcm.*)
                0x0b000000                . = ALIGN (0x4)
                0x0b000000                __dtcm_end = ABSOLUTE (.)
                0x0204fd78                __itcm_lma = (__dtcm_lma + SIZEOF (.dtcm))

.itcm           0x01000100      0x194 load address 0x0204fd78
 *(.itcm)
 .itcm          0x01000100       0xc8 c:/devkitPro/libnds/lib\libnds9.a(interrupts.o)
                0x01000100                irqTable
 .itcm          0x010001c8       0xcc c:/devkitPro/libnds/lib\libnds9.a(interruptDispatcher.o)
                0x010001c8                IntrMain
 *itcm.*(.text)
                0x01000294                . = ALIGN (0x4)
                0x01000294                __itcm_end = ABSOLUTE (.)
                0x0204ff0c                __vectors_lma = (__itcm_lma + SIZEOF (.itcm))

.vectors        0x01000000        0x0 load address 0x0204ff0c
 *(.vectors)
 *vectors.*(.text)
                0x01000000                . = ALIGN (0x4)
                0x01000000                __vectors_end = ABSOLUTE (.)

.sbss           0x0b000000        0x0
                0x0b000000                __sbss_start = ABSOLUTE (.)
                0x0b000000                __sbss_start__ = ABSOLUTE (.)
 *(.sbss)
                0x0b000000                . = ALIGN (0x4)
                0x0b000000                __sbss_end = ABSOLUTE (.)

.bss            0x0204fd78    0x17dbc
                0x0204fd78                __bss_start = ABSOLUTE (.)
                0x0204fd78                __bss_start__ = ABSOLUTE (.)
 *(.dynbss)
 *(.gnu.linkonce.b*)
 *(.bss*)
 .bss           0x0204fd78        0x0 c:/devkitpro/devkitarm/bin/../lib/gcc/arm-eabi/4.7.0/../../../../arm-eabi/lib/thumb/ds_arm9_crt0.o
 .bss           0x0204fd78        0x0 c:/devkitpro/devkitarm/bin/../lib/gcc/arm-eabi/4.7.0/thumb/crti.o
 .bss           0x0204fd78       0x1c c:/devkitpro/devkitarm/bin/../lib/gcc/arm-eabi/4.7.0/thumb/crtbegin.o
 .bss           0x0204fd94        0x0 demarrage_bas_Bitmap.o
 .bss           0x0204fd94        0x0 demarrage_haut_Bitmap.o
 .bss           0x0204fd94        0x0 joueur_b_Pal.o
 .bss           0x0204fd94        0x0 joueur_b_Sprite.o
 .bss           0x0204fd94        0x0 joueur_d_Pal.o
 .bss           0x0204fd94        0x0 joueur_d_Sprite.o
 .bss           0x0204fd94        0x0 joueur_g_Pal.o
 .bss           0x0204fd94        0x0 joueur_g_Sprite.o
 .bss           0x0204fd94        0x0 joueur_h_Pal.o
 .bss           0x0204fd94        0x0 joueur_h_Sprite.o
 .bss           0x0204fd94        0x0 pacman_Pal.o
 .bss           0x0204fd94        0x0 pacman_Sprite.o
 .bss           0x0204fd94        0x0 sprite_00_Pal.o
 .bss           0x0204fd94        0x0 sprite_00_Sprite.o
 .bss           0x0204fd94        0x0 sprite_01_Pal.o
 .bss           0x0204fd94        0x0 sprite_01_Sprite.o
 .bss           0x0204fd94        0x0 sprite_02_Pal.o
 .bss           0x0204fd94        0x0 sprite_02_Sprite.o
 .bss           0x0204fd94        0x0 sprite_03_Pal.o
 .bss           0x0204fd94        0x0 sprite_03_Sprite.o
 .bss           0x0204fd94        0x0 sprite_10_Pal.o
 .bss           0x0204fd94        0x0 sprite_10_Sprite.o
 .bss           0x0204fd94        0x0 sprite_11_Pal.o
 .bss           0x0204fd94        0x0 sprite_11_Sprite.o
 .bss           0x0204fd94        0x0 sprite_12_Pal.o
 .bss           0x0204fd94        0x0 sprite_12_Sprite.o
 .bss           0x0204fd94        0x0 sprite_13_Pal.o
 .bss           0x0204fd94        0x0 sprite_13_Sprite.o
 .bss           0x0204fd94        0x0 sprite_20_Pal.o
 .bss           0x0204fd94        0x0 sprite_20_Sprite.o
 .bss           0x0204fd94        0x0 sprite_21_Pal.o
 .bss           0x0204fd94        0x0 sprite_21_Sprite.o
 .bss           0x0204fd94        0x0 sprite_22_Pal.o
 .bss           0x0204fd94        0x0 sprite_22_Sprite.o
 .bss           0x0204fd94        0x0 sprite_23_Pal.o
 .bss           0x0204fd94        0x0 sprite_23_Sprite.o
 .bss           0x0204fd94        0x0 sprite_30_Pal.o
 .bss           0x0204fd94        0x0 sprite_30_Sprite.o
 .bss           0x0204fd94        0x0 sprite_31_Pal.o
 .bss           0x0204fd94        0x0 sprite_31_Sprite.o
 .bss           0x0204fd94        0x0 sprite_32_Pal.o
 .bss           0x0204fd94        0x0 sprite_32_Sprite.o
 .bss           0x0204fd94        0x0 main.o
 .bss           0x0204fd94        0x1 procedures.o
                0x0204fd94                sprite_pacman
 *fill*         0x0204fd95        0x1 00
 .bss           0x0204fd96        0x4 c:/devkitPro/PAlib/lib\libpa9.a(PA.o)
                0x0204fd96                pa_giftotexcolor
                0x0204fd98                PA_Screen
                0x0204fd99                PA_MoveSpriteType
 .bss           0x0204fd9a        0x0 c:/devkitPro/PAlib/lib\libpa9.a(PA_BgTiles.o)
 .bss           0x0204fd9a        0x0 c:/devkitPro/PAlib/lib\libpa9.a(PA_Draw.o)
 .bss           0x0204fd9a        0x0 c:/devkitPro/PAlib/lib\libpa9.a(PA_Draw16bit.o)
 .bss           0x0204fd9a        0x0 c:/devkitPro/PAlib/lib\libpa9.a(PA_Error.o)
 .bss           0x0204fd9a        0x0 c:/devkitPro/PAlib/lib\libpa9.a(PA_Inits.o)
 .bss           0x0204fd9a        0x0 c:/devkitPro/PAlib/lib\libpa9.a(PA_Interrupt.o)
 .bss           0x0204fd9a        0x0 c:/devkitPro/PAlib/lib\libpa9.a(PA_Keys.o)
 .bss           0x0204fd9a        0x0 c:/devkitPro/PAlib/lib\libpa9.a(PA_Math.o)
 .bss           0x0204fd9a        0x0 c:/devkitPro/PAlib/lib\libpa9.a(PA_Palette.o)
 .bss           0x0204fd9a        0x0 c:/devkitPro/PAlib/lib\libpa9.a(PA_RTC.o)
 .bss           0x0204fd9a        0x1 c:/devkitPro/PAlib/lib\libpa9.a(PA_Reco.o)
                0x0204fd9a                PA_CustomReco
 *fill*         0x0204fd9b        0x1 00
 .bss           0x0204fd9c        0xc c:/devkitPro/PAlib/lib\libpa9.a(PA_Sprite.o)
                0x0204fd9c                PA_SpriteExtPrio
                0x0204fda0                FirstGfx
                0x0204fda4                nspriteanims
 .bss           0x0204fda8        0x0 c:/devkitPro/PAlib/lib\libpa9.a(PA_Stuff.o)
 .bss           0x0204fda8        0x8 c:/devkitPro/PAlib/lib\libpa9.a(PA_Text.o)
                0x0204fda8                PAtext_pal
                0x0204fdac                PA_font
 .bss           0x0204fdb0        0x0 c:/devkitPro/PAlib/lib\libpa9.a(PA_TextBits.o)
 .bss           0x0204fdb0        0x0 c:/devkitPro/PAlib/lib\libpa9.a(PA_TiledFont.o)
 .bss           0x0204fdb0        0x0 c:/devkitPro/PAlib/lib\libpa9.a(PA_BmpFont0.o)
 .bss           0x0204fdb0        0x0 c:/devkitPro/PAlib/lib\libpa9.a(PA_BmpFont1.o)
 .bss           0x0204fdb0        0x0 c:/devkitPro/PAlib/lib\libpa9.a(PA_BmpFont2.o)
 .bss           0x0204fdb0        0x0 c:/devkitPro/PAlib/lib\libpa9.a(PA_BmpFont3.o)
 .bss           0x0204fdb0        0x0 c:/devkitPro/PAlib/lib\libpa9.a(PA_BmpFont4.o)
 .bss           0x0204fdb0        0x0 c:/devkitPro/PAlib/lib\libpa9.a(PA_TiledFont_Map.bin.o)
 .bss           0x0204fdb0        0x0 c:/devkitPro/PAlib/lib\libpa9.a(PA_TiledFont_Pal.bin.o)
 .bss           0x0204fdb0        0x0 c:/devkitPro/PAlib/lib\libpa9.a(PA_TiledFont_Tiles.bin.o)
 .bss           0x0204fdb0        0x0 c:/devkitPro/PAlib/lib\libpa9.a(PA_BmpFont0_Map.bin.o)
 .bss           0x0204fdb0        0x0 c:/devkitPro/PAlib/lib\libpa9.a(PA_BmpFont0_Sizes.bin.o)
 .bss           0x0204fdb0        0x0 c:/devkitPro/PAlib/lib\libpa9.a(PA_BmpFont0_Tiles.bin.o)
 .bss           0x0204fdb0        0x0 c:/devkitPro/PAlib/lib\libpa9.a(PA_BmpFont1_Map.bin.o)
 .bss           0x0204fdb0        0x0 c:/devkitPro/PAlib/lib\libpa9.a(PA_BmpFont1_Sizes.bin.o)
 .bss           0x0204fdb0        0x0 c:/devkitPro/PAlib/lib\libpa9.a(PA_BmpFont1_Tiles.bin.o)
 .bss           0x0204fdb0        0x0 c:/devkitPro/PAlib/lib\libpa9.a(PA_BmpFont2_Map.bin.o)
 .bss           0x0204fdb0        0x0 c:/devkitPro/PAlib/lib\libpa9.a(PA_BmpFont2_Sizes.bin.o)
 .bss           0x0204fdb0        0x0 c:/devkitPro/PAlib/lib\libpa9.a(PA_BmpFont2_Tiles.bin.o)
 .bss           0x0204fdb0        0x0 c:/devkitPro/PAlib/lib\libpa9.a(PA_BmpFont3_Map.bin.o)
 .bss           0x0204fdb0        0x0 c:/devkitPro/PAlib/lib\libpa9.a(PA_BmpFont3_Sizes.bin.o)
 .bss           0x0204fdb0        0x0 c:/devkitPro/PAlib/lib\libpa9.a(PA_BmpFont3_Tiles.bin.o)
 .bss           0x0204fdb0        0x0 c:/devkitPro/PAlib/lib\libpa9.a(PA_BmpFont4_Map.bin.o)
 .bss           0x0204fdb0        0x0 c:/devkitPro/PAlib/lib\libpa9.a(PA_BmpFont4_Sizes.bin.o)
 .bss           0x0204fdb0        0x0 c:/devkitPro/PAlib/lib\libpa9.a(PA_BmpFont4_Tiles.bin.o)
 .bss           0x0204fdb0        0x0 c:/devkitPro/PAlib/lib\libpa9.a(PA_Fifo.o)
 .bss           0x0204fdb0        0x0 c:/devkitPro/PAlib/lib\libpa9.a(PA_NewBg.o)
 .bss           0x0204fdb0        0x0 c:/devkitPro/PAlib/lib\libpa9.a(PA_PaletteEx.o)
 .bss           0x0204fdb0        0x0 c:/devkitPro/PAlib/lib\libpa9.a(PA_Text8bit.o)
 .bss           0x0204fdb0        0x0 c:/devkitPro/PAlib/lib\libpa9.a(PA_16c.o)
 .bss           0x0204fdb0        0x0 c:/devkitPro/PAlib/lib\libpa9.a(PA_BgEasy.o)
 .bss           0x0204fdb0        0x0 c:/devkitPro/PAlib/lib\libpa9.a(PA_BgLargeMap.o)
 .bss           0x0204fdb0        0x0 c:/devkitPro/PAlib/lib\libpa9.a(PA_BgRot.o)
 .bss           0x0204fdb0        0x1 c:/devkitPro/PAlib/lib\libpa9.a(PA_Keyboard.o)
                0x0204fdb0                keyb_screen
 .bss           0x0204fdb1        0x0 c:/devkitPro/PAlib/lib\libpa9.a(keyboard.map.o)
 .bss           0x0204fdb1        0x0 c:/devkitPro/PAlib/lib\libpa9.a(keyboard.pal.o)
 .bss           0x0204fdb1        0x0 c:/devkitPro/PAlib/lib\libpa9.a(keyboard.raw.o)
 *fill*         0x0204fdb1        0x1 00
 .bss           0x0204fdb2        0x6 c:/devkitPro/libnds/lib\libnds9.a(keys.o)
 .bss           0x0204fdb8        0x4 c:/devkitPro/libnds/lib\libnds9.a(system.o)
 .bss           0x0204fdbc        0x0 c:/devkitPro/libnds/lib\libnds9.a(touch.o)
 .bss           0x0204fdbc        0x0 c:/devkitPro/libnds/lib\libnds9.a(video.o)
 .bss           0x0204fdbc        0x0 c:/devkitPro/libnds/lib\libnds9.a(initSystem.o)
 .bss           0x0204fdbc        0x8 c:/devkitPro/libnds/lib\libnds9.a(fifosystem.o)
                0x0204fdc0                processing
 .bss           0x0204fdc4        0x0 c:/devkitPro/libnds/lib\libnds9.a(interrupts.o)
 .bss           0x0204fdc4        0x0 c:/devkitPro/libnds/lib\libnds9.a(libnds_exit.arm.o)
 .bss           0x0204fdc4        0x0 c:/devkitPro/libnds/lib\libnds9.a(dcache.o)
 .bss           0x0204fdc4        0x0 c:/devkitPro/libnds/lib\libnds9.a(mpu_setup.o)
 .bss           0x0204fdc4        0x0 c:/devkitPro/libnds/lib\libnds9.a(biosCalls.o)
 .bss           0x0204fdc4        0x0 c:/devkitPro/libnds/lib\libnds9.a(interruptDispatcher.o)
 .bss           0x0204fdc4        0x0 c:/devkitPro/libnds/lib\libnds9.a(swiSoftReset.o)
 .bss           0x0204fdc4        0x0 c:/devkitpro/devkitarm/bin/../lib/gcc/arm-eabi/4.7.0/thumb\libgcc.a(_divsi3.o)
 .bss           0x0204fdc4        0x0 c:/devkitpro/devkitarm/bin/../lib/gcc/arm-eabi/4.7.0/thumb\libgcc.a(_dvmd_tls.o)
 .bss           0x0204fdc4        0x0 c:/devkitpro/devkitarm/bin/../lib/gcc/arm-eabi/4.7.0/thumb\libgcc.a(_arm_addsubdf3.o)
 .bss           0x0204fdc4        0x0 c:/devkitpro/devkitarm/bin/../lib/gcc/arm-eabi/4.7.0/thumb\libgcc.a(_arm_muldivdf3.o)
 .bss           0x0204fdc4        0x0 c:/devkitpro/devkitarm/bin/../lib/gcc/arm-eabi/4.7.0/thumb\libgcc.a(_arm_cmpdf2.o)
 .bss           0x0204fdc4        0x0 c:/devkitpro/devkitarm/bin/../lib/gcc/arm-eabi/4.7.0/thumb\libgcc.a(_arm_fixdfsi.o)
 .bss           0x0204fdc4        0x0 c:/devkitpro/devkitarm/bin/../lib/gcc/arm-eabi/4.7.0/thumb\libgcc.a(_muldi3.o)
 .bss           0x0204fdc4        0x0 c:/devkitpro/devkitarm/bin/../lib/gcc/arm-eabi/4.7.0/../../../../arm-eabi/lib/thumb\libg.a(lib_a-gmtime.o)
 .bss           0x0204fdc4        0x0 c:/devkitpro/devkitarm/bin/../lib/gcc/arm-eabi/4.7.0/../../../../arm-eabi/lib/thumb\libg.a(lib_a-gmtime_r.o)
 .bss           0x0204fdc4        0x0 c:/devkitpro/devkitarm/bin/../lib/gcc/arm-eabi/4.7.0/../../../../arm-eabi/lib/thumb\libg.a(lib_a-impure.o)
 .bss           0x0204fdc4        0x0 c:/devkitpro/devkitarm/bin/../lib/gcc/arm-eabi/4.7.0/../../../../arm-eabi/lib/thumb\libg.a(lib_a-init.o)
 .bss           0x0204fdc4      0x2b8 c:/devkitpro/devkitarm/bin/../lib/gcc/arm-eabi/4.7.0/../../../../arm-eabi/lib/thumb\libg.a(lib_a-locale.o)
                0x02050070                _PathLocale
                0x02050074                __mlocale_changed
                0x02050078                __nlocale_changed
 .bss           0x0205007c        0x0 c:/devkitpro/devkitarm/bin/../lib/gcc/arm-eabi/4.7.0/../../../../arm-eabi/lib/thumb\libg.a(lib_a-malloc.o)
 .bss           0x0205007c       0x34 c:/devkitpro/devkitarm/bin/../lib/gcc/arm-eabi/4.7.0/../../../../arm-eabi/lib/thumb\libg.a(lib_a-mallocr.o)
                0x0205007c                __malloc_top_pad
                0x02050080                __malloc_current_mallinfo
                0x020500a8                __malloc_max_sbrked_mem
                0x020500ac                __malloc_max_total_mem
 .bss           0x020500b0        0x0 c:/devkitpro/devkitarm/bin/../lib/gcc/arm-eabi/4.7.0/../../../../arm-eabi/lib/thumb\libg.a(lib_a-mbtowc_r.o)
 .bss           0x020500b0        0x0 c:/devkitpro/devkitarm/bin/../lib/gcc/arm-eabi/4.7.0/../../../../arm-eabi/lib/thumb\libg.a(lib_a-memcpy-stub.o)
 .bss           0x020500b0        0x0 c:/devkitpro/devkitarm/bin/../lib/gcc/arm-eabi/4.7.0/../../../../arm-eabi/lib/thumb\libg.a(lib_a-mktm_r.o)
 .bss           0x020500b0        0x0 c:/devkitpro/devkitarm/bin/../lib/gcc/arm-eabi/4.7.0/../../../../arm-eabi/lib/thumb\libg.a(lib_a-mlock.o)
 .bss           0x020500b0        0x0 c:/devkitpro/devkitarm/bin/../lib/gcc/arm-eabi/4.7.0/../../../../arm-eabi/lib/thumb\libg.a(lib_a-strcasecmp.o)
 .bss           0x020500b0        0x0 c:/devkitpro/devkitarm/bin/../lib/gcc/arm-eabi/4.7.0/../../../../arm-eabi/lib/thumb\libg.a(lib_a-strcat.o)
 .bss           0x020500b0        0x0 c:/devkitpro/devkitarm/bin/../lib/gcc/arm-eabi/4.7.0/../../../../arm-eabi/lib/thumb\libg.a(lib_a-strchr.o)
 .bss           0x020500b0        0x0 c:/devkitpro/devkitarm/bin/../lib/gcc/arm-eabi/4.7.0/../../../../arm-eabi/lib/thumb\libg.a(lib_a-strcmp.o)
 .bss           0x020500b0        0x0 c:/devkitpro/devkitarm/bin/../lib/gcc/arm-eabi/4.7.0/../../../../arm-eabi/lib/thumb\libg.a(lib_a-strcpy.o)
 .bss           0x020500b0        0x0 c:/devkitpro/devkitarm/bin/../lib/gcc/arm-eabi/4.7.0/../../../../arm-eabi/lib/thumb\libg.a(lib_a-strlcpy.o)
 .bss           0x020500b0        0x0 c:/devkitpro/devkitarm/bin/../lib/gcc/arm-eabi/4.7.0/../../../../arm-eabi/lib/thumb\libg.a(lib_a-strlen.o)
 .bss           0x020500b0        0x0 c:/devkitpro/devkitarm/bin/../lib/gcc/arm-eabi/4.7.0/../../../../arm-eabi/lib/thumb\libg.a(lib_a-strncasecmp.o)
 .bss           0x020500b0        0x0 c:/devkitpro/devkitarm/bin/../lib/gcc/arm-eabi/4.7.0/../../../../arm-eabi/lib/thumb\libg.a(lib_a-strncmp.o)
 .bss           0x020500b0        0x0 c:/devkitpro/devkitarm/bin/../lib/gcc/arm-eabi/4.7.0/../../../../arm-eabi/lib/thumb\libg.a(lib_a-strncpy.o)
 .bss           0x020500b0        0x0 c:/devkitpro/devkitarm/bin/../lib/gcc/arm-eabi/4.7.0/../../../../arm-eabi/lib/thumb\libg.a(lib_a-strtol.o)
 .bss           0x020500b0        0x0 c:/devkitpro/devkitarm/bin/../lib/gcc/arm-eabi/4.7.0/../../../../arm-eabi/lib/thumb\libg.a(lib_a-sysstat.o)
 .bss           0x020500b0        0x0 c:/devkitpro/devkitarm/bin/../lib/gcc/arm-eabi/4.7.0/../../../../arm-eabi/lib/thumb\libg.a(lib_a-time.o)
 .bss           0x020500b0        0x0 c:/devkitpro/devkitarm/bin/../lib/gcc/arm-eabi/4.7.0/../../../../arm-eabi/lib/thumb\libg.a(lib_a-tzlock.o)
 .bss           0x020500b0        0x8 c:/devkitpro/devkitarm/bin/../lib/gcc/arm-eabi/4.7.0/../../../../arm-eabi/lib/thumb\libg.a(lib_a-tzvars.o)
                0x020500b0                _timezone
                0x020500b4                _daylight
 .bss           0x020500b8        0x0 c:/devkitpro/devkitarm/bin/../lib/gcc/arm-eabi/4.7.0/../../../../arm-eabi/lib/thumb\libg.a(lib_a-wctomb_r.o)
 .bss           0x020500b8        0x0 c:/devkitpro/devkitarm/bin/../lib/gcc/arm-eabi/4.7.0/../../../../arm-eabi/lib/thumb\libg.a(lib_a-ctype_.o)
 .bss           0x020500b8        0x0 c:/devkitpro/devkitarm/bin/../lib/gcc/arm-eabi/4.7.0/../../../../arm-eabi/lib/thumb\libg.a(lib_a-freer.o)
 .bss           0x020500b8        0x0 c:/devkitpro/devkitarm/bin/../lib/gcc/arm-eabi/4.7.0/../../../../arm-eabi/lib/thumb\libg.a(lib_a-getenv_r.o)
 .bss           0x020500b8        0x0 c:/devkitpro/devkitarm/bin/../lib/gcc/arm-eabi/4.7.0/../../../../arm-eabi/lib/thumb\libg.a(lib_a-gettzinfo.o)
 .bss           0x020500b8        0x4 c:/devkitpro/devkitarm/bin/../lib/gcc/arm-eabi/4.7.0/../../../../arm-eabi/lib/thumb\libg.a(lib_a-environ.o)
 .bss           0x020500bc        0x0 c:/devkitpro/devkitarm/bin/../lib/gcc/arm-eabi/4.7.0/../../../../arm-eabi/lib/thumb\libg.a(lib_a-envlock.o)
 .bss           0x020500bc        0x4 c:/devkitpro/devkitarm/bin/../lib/gcc/arm-eabi/4.7.0/../../../../arm-eabi/lib/thumb\libsysbase.a(sbrk.o)
 .bss           0x020500c0        0x0 c:/devkitpro/devkitarm/bin/../lib/gcc/arm-eabi/4.7.0/../../../../arm-eabi/lib/thumb\libsysbase.a(stat.o)
 .bss           0x020500c0        0x0 c:/devkitpro/devkitarm/bin/../lib/gcc/arm-eabi/4.7.0/../../../../arm-eabi/lib/thumb\libsysbase.a(times.o)
 .bss           0x020500c0        0x8 c:/devkitpro/devkitarm/bin/../lib/gcc/arm-eabi/4.7.0/../../../../arm-eabi/lib/thumb\libsysbase.a(malloc_vars.o)
                0x020500c0                fake_heap_start
                0x020500c4                fake_heap_end
 .bss           0x020500c8        0x0 c:/devkitpro/devkitarm/bin/../lib/gcc/arm-eabi/4.7.0/../../../../arm-eabi/lib/thumb\libsysbase.a(build_argv.o)
 .bss           0x020500c8        0x8 c:/devkitpro/devkitarm/bin/../lib/gcc/arm-eabi/4.7.0/../../../../arm-eabi/lib/thumb\libsysbase.a(syscall_support.o)
                0x020500c8                __syscalls
 .bss           0x020500d0        0x0 c:/devkitpro/devkitarm/bin/../lib/gcc/arm-eabi/4.7.0/../../../../arm-eabi/lib/thumb\libsysbase.a(dirent.o)
 .bss           0x020500d0        0x0 c:/devkitpro/devkitarm/bin/../lib/gcc/arm-eabi/4.7.0/../../../../arm-eabi/lib/thumb\libsysbase.a(iosupport.o)
 .bss           0x020500d0        0x0 c:/devkitpro/devkitarm/bin/../lib/gcc/arm-eabi/4.7.0/thumb\libgcc.a(_udivsi3.o)
 .bss           0x020500d0        0x0 c:/devkitpro/devkitarm/bin/../lib/gcc/arm-eabi/4.7.0/../../../../arm-eabi/lib/thumb\libg.a(lib_a-errno.o)
 .bss           0x020500d0        0x0 c:/devkitpro/devkitarm/bin/../lib/gcc/arm-eabi/4.7.0/../../../../arm-eabi/lib/thumb\libg.a(lib_a-strnlen.o)
 .bss           0x020500d0        0x0 c:/devkitpro/devkitarm/bin/../lib/gcc/arm-eabi/4.7.0/thumb/crtend.o
 .bss           0x020500d0        0x0 c:/devkitpro/devkitarm/bin/../lib/gcc/arm-eabi/4.7.0/thumb/crtn.o
 *(COMMON)
 COMMON         0x020500d0      0xb00 procedures.o
                0x020500d0                tab
 COMMON         0x02050bd0      0x22c c:/devkitPro/PAlib/lib\libpa9.a(PA.o)
                0x02050bd0                PA_ScreenSpace
                0x02050bd4                PadPointer
                0x02050bd8                pa_checklid
                0x02050bdc                PA_IPC
                0x02050d74                Pad
                0x02050d9c                Stylus
                0x02050db8                PA_bgmap
                0x02050dd8                PA_GifInfo
                0x02050dec                PA_MovedSprite
 COMMON         0x02050dfc      0x3d0 c:/devkitPro/PAlib/lib\libpa9.a(PA_BgTiles.o)
                0x02050dfc                PA_parallaxY
                0x02050e1c                PA_parallaxX
                0x02050e3c                tempsize
                0x02050e40                charblocks
                0x02050ecc                PA_BgInfo
                0x020510ec                scrollpos
 COMMON         0x020511cc      0x226 c:/devkitPro/PAlib/lib\libpa9.a(PA_Draw.o)
                0x020511cc                PA_olddowntime
                0x020511d0                PA_DrawBg32
                0x020511d8                PA_DrawBg
                0x020511e0                PA_oldx
                0x020511e4                PA_drawsize
                0x020511e8                PA_oldy
                0x020511ec                tempvar
                0x020511f0                PA_temppal
                0x020513f0                PA_nBit
 *fill*         0x020513f2        0x2 00
 COMMON         0x020513f4        0x2 c:/devkitPro/PAlib/lib\libpa9.a(PA_Draw16bit.o)
                0x020513f4                pa16bitbuffer
 *fill*         0x020513f6        0x2 00
 COMMON         0x020513f8       0x50 c:/devkitPro/PAlib/lib\libpa9.a(PA_Interrupt.o)
                0x020513f8                PA_VBLCounter
                0x02051438                PA_VBLCounterOn
 COMMON         0x02051448        0x1 c:/devkitPro/PAlib/lib\libpa9.a(PA_Keys.o)
                0x02051448                _PA_LidDown
 *fill*         0x02051449        0x3 00
 COMMON         0x0205144c        0x4 c:/devkitPro/PAlib/lib\libpa9.a(PA_Palette.o)
                0x0205144c                PA_ExtPal
 COMMON         0x02051450       0x5a c:/devkitPro/PAlib/lib\libpa9.a(PA_RTC.o)
                0x02051450                PA_RTC
                0x02051458                PA_UserInfo
 *fill*         0x020514aa        0x2 00
 COMMON         0x020514ac     0xa9bc c:/devkitPro/PAlib/lib\libpa9.a(PA_Reco.o)
                0x020514ac                PA_Reco
                0x020514b8                PA_RecoInfo
                0x020514d0                PA_StylusPos
                0x0205b110                PA_CustomShape
                0x0205be58                PA_RecoShape
 COMMON         0x0205be68     0x8204 c:/devkitPro/PAlib/lib\libpa9.a(PA_Sprite.o)
                0x0205be68                free_mem
                0x0205de68                n_free_mem
                0x0205de6c                PA_SpritePrio
                0x0205df6c                used_mem
                0x0205e76c                spriteanims
                0x02060b6c                PA_SpriteAnimP
                0x02062b6c                PA_first
                0x02062d6c                PA_next
                0x02062e6c                obj_per_gfx
                0x0206366c                PA_obj
                0x02063e6c                DualSpriteX
                0x02063f6c                pa_obj_created
 COMMON         0x0206406c       0x3c c:/devkitPro/PAlib/lib\libpa9.a(PA_Text.o)
                0x0206406c                PA_texttiles
                0x02064074                PA_TextBox
                0x0206407c                PAbgtext
                0x02064080                pa_printx
                0x02064088                pa_printy
                0x02064090                textcol
                0x02064094                pa_printscroll
                0x02064098                PA_textpal
                0x020640a0                PA_textmap
 COMMON         0x020640a8     0x301a c:/devkitPro/PAlib/lib\libpa9.a(PA_TextBits.o)
                0x020640a8                PA_LetterPos
                0x020670ac                pa_bittextpoliceheight
                0x020670b8                pa_bittextsizes
 *fill*         0x020670c2        0x2 00
 COMMON         0x020670c4       0x10 c:/devkitPro/PAlib/lib\libpa9.a(PA_16c.o)
                0x020670c4                PA_Draw16
                0x020670cc                PA_Draw1632
 COMMON         0x020670d4        0x8 c:/devkitPro/PAlib/lib\libpa9.a(PA_BgRot.o)
                0x020670d4                rotbg_size
 COMMON         0x020670dc       0x12 c:/devkitPro/PAlib/lib\libpa9.a(PA_Keyboard.o)
                0x020670dc                PA_Keyboard_Struct
 COMMON         0x020670ee        0x1 c:/devkitPro/libnds/lib\libnds9.a(initSystem.o)
                0x020670ee                __dsimode
 *fill*         0x020670ef        0x1 00
 COMMON         0x020670f0      0xa40 c:/devkitPro/libnds/lib\libnds9.a(fifosystem.o)
                0x020670f0                fifo_datamsg_data
                0x02067130                fifo_buffer
                0x02067930                fifo_value32_func
                0x02067970                fifo_address_func
                0x020679b0                fifo_value32_data
                0x020679f0                fifo_value32_queue
                0x02067a30                fifo_data_queue
                0x02067a70                fifo_address_data
                0x02067ab0                fifo_datamsg_func
                0x02067af0                fifo_address_queue
 COMMON         0x02067b30        0x4 c:/devkitpro/devkitarm/bin/../lib/gcc/arm-eabi/4.7.0/../../../../arm-eabi/lib/thumb\libsysbase.a(times.o)
                0x02067b30                punixTime
                0x02067b34                . = ALIGN (0x4)
                0x02067b34                __bss_end__ = ABSOLUTE (.)
                0x02067b34                __end__ = ABSOLUTE (.)

.stab
 *(.stab)

.stabstr
 *(.stabstr)

.stab.excl
 *(.stab.excl)

.stab.exclstr
 *(.stab.exclstr)

.stab.index
 *(.stab.index)

.stab.indexstr
 *(.stab.indexstr)

.comment        0x00000000       0x66
 *(.comment)
 .comment       0x00000000       0x22 c:/devkitpro/devkitarm/bin/../lib/gcc/arm-eabi/4.7.0/thumb/crtbegin.o
                                 0x23 (size before relaxing)
 .comment       0x00000000       0x23 main.o
 .comment       0x00000000       0x23 procedures.o
 .comment       0x00000022       0x22 c:/devkitPro/PAlib/lib\libpa9.a(PA.o)
                                 0x23 (size before relaxing)
 .comment       0x00000000       0x23 c:/devkitPro/PAlib/lib\libpa9.a(PA_BgTiles.o)
 .comment       0x00000000       0x23 c:/devkitPro/PAlib/lib\libpa9.a(PA_Draw.o)
 .comment       0x00000000       0x23 c:/devkitPro/PAlib/lib\libpa9.a(PA_Draw16bit.o)
 .comment       0x00000000       0x23 c:/devkitPro/PAlib/lib\libpa9.a(PA_Error.o)
 .comment       0x00000000       0x23 c:/devkitPro/PAlib/lib\libpa9.a(PA_Inits.o)
 .comment       0x00000000       0x23 c:/devkitPro/PAlib/lib\libpa9.a(PA_Interrupt.o)
 .comment       0x00000000       0x23 c:/devkitPro/PAlib/lib\libpa9.a(PA_Keys.o)
 .comment       0x00000000       0x23 c:/devkitPro/PAlib/lib\libpa9.a(PA_Math.o)
 .comment       0x00000000       0x23 c:/devkitPro/PAlib/lib\libpa9.a(PA_Palette.o)
 .comment       0x00000000       0x23 c:/devkitPro/PAlib/lib\libpa9.a(PA_RTC.o)
 .comment       0x00000000       0x23 c:/devkitPro/PAlib/lib\libpa9.a(PA_Reco.o)
 .comment       0x00000000       0x23 c:/devkitPro/PAlib/lib\libpa9.a(PA_Sprite.o)
 .comment       0x00000000       0x23 c:/devkitPro/PAlib/lib\libpa9.a(PA_Stuff.o)
 .comment       0x00000000       0x23 c:/devkitPro/PAlib/lib\libpa9.a(PA_Text.o)
 .comment       0x00000000       0x23 c:/devkitPro/PAlib/lib\libpa9.a(PA_TextBits.o)
 .comment       0x00000000       0x23 c:/devkitPro/PAlib/lib\libpa9.a(PA_TiledFont.o)
 .comment       0x00000000       0x23 c:/devkitPro/PAlib/lib\libpa9.a(PA_BmpFont0.o)
 .comment       0x00000000       0x23 c:/devkitPro/PAlib/lib\libpa9.a(PA_BmpFont1.o)
 .comment       0x00000000       0x23 c:/devkitPro/PAlib/lib\libpa9.a(PA_BmpFont2.o)
 .comment       0x00000000       0x23 c:/devkitPro/PAlib/lib\libpa9.a(PA_BmpFont3.o)
 .comment       0x00000000       0x23 c:/devkitPro/PAlib/lib\libpa9.a(PA_BmpFont4.o)
 .comment       0x00000000       0x23 c:/devkitPro/PAlib/lib\libpa9.a(PA_Fifo.o)
 .comment       0x00000000       0x23 c:/devkitPro/PAlib/lib\libpa9.a(PA_NewBg.o)
 .comment       0x00000000       0x23 c:/devkitPro/PAlib/lib\libpa9.a(PA_PaletteEx.o)
 .comment       0x00000000       0x23 c:/devkitPro/PAlib/lib\libpa9.a(PA_Text8bit.o)
 .comment       0x00000000       0x23 c:/devkitPro/PAlib/lib\libpa9.a(PA_16c.o)
 .comment       0x00000000       0x23 c:/devkitPro/PAlib/lib\libpa9.a(PA_BgEasy.o)
 .comment       0x00000000       0x23 c:/devkitPro/PAlib/lib\libpa9.a(PA_BgLargeMap.o)
 .comment       0x00000000       0x23 c:/devkitPro/PAlib/lib\libpa9.a(PA_BgRot.o)
 .comment       0x00000000       0x23 c:/devkitPro/PAlib/lib\libpa9.a(PA_Keyboard.o)
 .comment       0x00000000       0x23 c:/devkitPro/PAlib/lib\libpa9.a(keyboard.map.o)
 .comment       0x00000000       0x23 c:/devkitPro/PAlib/lib\libpa9.a(keyboard.pal.o)
 .comment       0x00000000       0x23 c:/devkitPro/PAlib/lib\libpa9.a(keyboard.raw.o)
 .comment       0x00000000       0x23 c:/devkitPro/libnds/lib\libnds9.a(keys.o)
 .comment       0x00000000       0x23 c:/devkitPro/libnds/lib\libnds9.a(system.o)
 .comment       0x00000000       0x23 c:/devkitPro/libnds/lib\libnds9.a(touch.o)
 .comment       0x00000044       0x22 c:/devkitPro/libnds/lib\libnds9.a(video.o)
                                 0x23 (size before relaxing)
 .comment       0x00000000       0x23 c:/devkitPro/libnds/lib\libnds9.a(initSystem.o)
 .comment       0x00000000       0x23 c:/devkitPro/libnds/lib\libnds9.a(fifosystem.o)
 .comment       0x00000000       0x23 c:/devkitPro/libnds/lib\libnds9.a(interrupts.o)
 .comment       0x00000000       0x23 c:/devkitPro/libnds/lib\libnds9.a(libnds_exit.arm.o)
 .comment       0x00000000       0x23 c:/devkitpro/devkitarm/bin/../lib/gcc/arm-eabi/4.7.0/thumb\libgcc.a(_muldi3.o)
 .comment       0x00000000       0x23 c:/devkitpro/devkitarm/bin/../lib/gcc/arm-eabi/4.7.0/../../../../arm-eabi/lib/thumb\libg.a(lib_a-gmtime.o)
 .comment       0x00000000       0x23 c:/devkitpro/devkitarm/bin/../lib/gcc/arm-eabi/4.7.0/../../../../arm-eabi/lib/thumb\libg.a(lib_a-gmtime_r.o)
 .comment       0x00000000       0x23 c:/devkitpro/devkitarm/bin/../lib/gcc/arm-eabi/4.7.0/../../../../arm-eabi/lib/thumb\libg.a(lib_a-impure.o)
 .comment       0x00000000       0x23 c:/devkitpro/devkitarm/bin/../lib/gcc/arm-eabi/4.7.0/../../../../arm-eabi/lib/thumb\libg.a(lib_a-init.o)
 .comment       0x00000000       0x23 c:/devkitpro/devkitarm/bin/../lib/gcc/arm-eabi/4.7.0/../../../../arm-eabi/lib/thumb\libg.a(lib_a-locale.o)
 .comment       0x00000000       0x23 c:/devkitpro/devkitarm/bin/../lib/gcc/arm-eabi/4.7.0/../../../../arm-eabi/lib/thumb\libg.a(lib_a-malloc.o)
 .comment       0x00000000       0x23 c:/devkitpro/devkitarm/bin/../lib/gcc/arm-eabi/4.7.0/../../../../arm-eabi/lib/thumb\libg.a(lib_a-mallocr.o)
 .comment       0x00000000       0x23 c:/devkitpro/devkitarm/bin/../lib/gcc/arm-eabi/4.7.0/../../../../arm-eabi/lib/thumb\libg.a(lib_a-mbtowc_r.o)
 .comment       0x00000000       0x23 c:/devkitpro/devkitarm/bin/../lib/gcc/arm-eabi/4.7.0/../../../../arm-eabi/lib/thumb\libg.a(lib_a-memcpy-stub.o)
 .comment       0x00000000       0x23 c:/devkitpro/devkitarm/bin/../lib/gcc/arm-eabi/4.7.0/../../../../arm-eabi/lib/thumb\libg.a(lib_a-mktm_r.o)
 .comment       0x00000000       0x23 c:/devkitpro/devkitarm/bin/../lib/gcc/arm-eabi/4.7.0/../../../../arm-eabi/lib/thumb\libg.a(lib_a-mlock.o)
 .comment       0x00000000       0x23 c:/devkitpro/devkitarm/bin/../lib/gcc/arm-eabi/4.7.0/../../../../arm-eabi/lib/thumb\libg.a(lib_a-strcasecmp.o)
 .comment       0x00000000       0x23 c:/devkitpro/devkitarm/bin/../lib/gcc/arm-eabi/4.7.0/../../../../arm-eabi/lib/thumb\libg.a(lib_a-strcat.o)
 .comment       0x00000000       0x23 c:/devkitpro/devkitarm/bin/../lib/gcc/arm-eabi/4.7.0/../../../../arm-eabi/lib/thumb\libg.a(lib_a-strchr.o)
 .comment       0x00000000       0x23 c:/devkitpro/devkitarm/bin/../lib/gcc/arm-eabi/4.7.0/../../../../arm-eabi/lib/thumb\libg.a(lib_a-strcmp.o)
 .comment       0x00000000       0x23 c:/devkitpro/devkitarm/bin/../lib/gcc/arm-eabi/4.7.0/../../../../arm-eabi/lib/thumb\libg.a(lib_a-strcpy.o)
 .comment       0x00000000       0x23 c:/devkitpro/devkitarm/bin/../lib/gcc/arm-eabi/4.7.0/../../../../arm-eabi/lib/thumb\libg.a(lib_a-strlcpy.o)
 .comment       0x00000000       0x23 c:/devkitpro/devkitarm/bin/../lib/gcc/arm-eabi/4.7.0/../../../../arm-eabi/lib/thumb\libg.a(lib_a-strlen.o)
 .comment       0x00000000       0x23 c:/devkitpro/devkitarm/bin/../lib/gcc/arm-eabi/4.7.0/../../../../arm-eabi/lib/thumb\libg.a(lib_a-strncasecmp.o)
 .comment       0x00000000       0x23 c:/devkitpro/devkitarm/bin/../lib/gcc/arm-eabi/4.7.0/../../../../arm-eabi/lib/thumb\libg.a(lib_a-strncmp.o)
 .comment       0x00000000       0x23 c:/devkitpro/devkitarm/bin/../lib/gcc/arm-eabi/4.7.0/../../../../arm-eabi/lib/thumb\libg.a(lib_a-strncpy.o)
 .comment       0x00000000       0x23 c:/devkitpro/devkitarm/bin/../lib/gcc/arm-eabi/4.7.0/../../../../arm-eabi/lib/thumb\libg.a(lib_a-strtol.o)
 .comment       0x00000000       0x23 c:/devkitpro/devkitarm/bin/../lib/gcc/arm-eabi/4.7.0/../../../../arm-eabi/lib/thumb\libg.a(lib_a-sysstat.o)
 .comment       0x00000000       0x23 c:/devkitpro/devkitarm/bin/../lib/gcc/arm-eabi/4.7.0/../../../../arm-eabi/lib/thumb\libg.a(lib_a-time.o)
 .comment       0x00000000       0x23 c:/devkitpro/devkitarm/bin/../lib/gcc/arm-eabi/4.7.0/../../../../arm-eabi/lib/thumb\libg.a(lib_a-tzlock.o)
 .comment       0x00000000       0x23 c:/devkitpro/devkitarm/bin/../lib/gcc/arm-eabi/4.7.0/../../../../arm-eabi/lib/thumb\libg.a(lib_a-tzvars.o)
 .comment       0x00000000       0x23 c:/devkitpro/devkitarm/bin/../lib/gcc/arm-eabi/4.7.0/../../../../arm-eabi/lib/thumb\libg.a(lib_a-wctomb_r.o)
 .comment       0x00000000       0x23 c:/devkitpro/devkitarm/bin/../lib/gcc/arm-eabi/4.7.0/../../../../arm-eabi/lib/thumb\libg.a(lib_a-ctype_.o)
 .comment       0x00000000       0x23 c:/devkitpro/devkitarm/bin/../lib/gcc/arm-eabi/4.7.0/../../../../arm-eabi/lib/thumb\libg.a(lib_a-freer.o)
 .comment       0x00000000       0x23 c:/devkitpro/devkitarm/bin/../lib/gcc/arm-eabi/4.7.0/../../../../arm-eabi/lib/thumb\libg.a(lib_a-getenv_r.o)
 .comment       0x00000000       0x23 c:/devkitpro/devkitarm/bin/../lib/gcc/arm-eabi/4.7.0/../../../../arm-eabi/lib/thumb\libg.a(lib_a-gettzinfo.o)
 .comment       0x00000000       0x23 c:/devkitpro/devkitarm/bin/../lib/gcc/arm-eabi/4.7.0/../../../../arm-eabi/lib/thumb\libg.a(lib_a-environ.o)
 .comment       0x00000000       0x23 c:/devkitpro/devkitarm/bin/../lib/gcc/arm-eabi/4.7.0/../../../../arm-eabi/lib/thumb\libg.a(lib_a-envlock.o)
 .comment       0x00000000       0x23 c:/devkitpro/devkitarm/bin/../lib/gcc/arm-eabi/4.7.0/../../../../arm-eabi/lib/thumb\libsysbase.a(sbrk.o)
 .comment       0x00000000       0x23 c:/devkitpro/devkitarm/bin/../lib/gcc/arm-eabi/4.7.0/../../../../arm-eabi/lib/thumb\libsysbase.a(stat.o)
 .comment       0x00000000       0x23 c:/devkitpro/devkitarm/bin/../lib/gcc/arm-eabi/4.7.0/../../../../arm-eabi/lib/thumb\libsysbase.a(times.o)
 .comment       0x00000000       0x23 c:/devkitpro/devkitarm/bin/../lib/gcc/arm-eabi/4.7.0/../../../../arm-eabi/lib/thumb\libsysbase.a(malloc_vars.o)
 .comment       0x00000000       0x23 c:/devkitpro/devkitarm/bin/../lib/gcc/arm-eabi/4.7.0/../../../../arm-eabi/lib/thumb\libsysbase.a(build_argv.o)
 .comment       0x00000000       0x23 c:/devkitpro/devkitarm/bin/../lib/gcc/arm-eabi/4.7.0/../../../../arm-eabi/lib/thumb\libsysbase.a(syscall_support.o)
 .comment       0x00000000       0x23 c:/devkitpro/devkitarm/bin/../lib/gcc/arm-eabi/4.7.0/../../../../arm-eabi/lib/thumb\libsysbase.a(dirent.o)
 .comment       0x00000000       0x23 c:/devkitpro/devkitarm/bin/../lib/gcc/arm-eabi/4.7.0/../../../../arm-eabi/lib/thumb\libsysbase.a(iosupport.o)
 .comment       0x00000000       0x23 c:/devkitpro/devkitarm/bin/../lib/gcc/arm-eabi/4.7.0/../../../../arm-eabi/lib/thumb\libg.a(lib_a-errno.o)
 .comment       0x00000000       0x23 c:/devkitpro/devkitarm/bin/../lib/gcc/arm-eabi/4.7.0/../../../../arm-eabi/lib/thumb\libg.a(lib_a-strnlen.o)
 .comment       0x00000000       0x23 c:/devkitpro/devkitarm/bin/../lib/gcc/arm-eabi/4.7.0/thumb/crtend.o

.ARM.attributes
                0x00000000       0x2d
 .ARM.attributes
                0x00000000       0x23 c:/devkitpro/devkitarm/bin/../lib/gcc/arm-eabi/4.7.0/../../../../arm-eabi/lib/thumb/ds_arm9_crt0.o
 .ARM.attributes
                0x00000023       0x18 c:/devkitpro/devkitarm/bin/../lib/gcc/arm-eabi/4.7.0/thumb/crti.o
 .ARM.attributes
                0x0000003b       0x32 c:/devkitpro/devkitarm/bin/../lib/gcc/arm-eabi/4.7.0/thumb/crtbegin.o
 .ARM.attributes
                0x0000006d       0x16 demarrage_bas_Bitmap.o
 .ARM.attributes
                0x00000083       0x16 demarrage_haut_Bitmap.o
 .ARM.attributes
                0x00000099       0x16 joueur_b_Pal.o
 .ARM.attributes
                0x000000af       0x16 joueur_b_Sprite.o
 .ARM.attributes
                0x000000c5       0x16 joueur_d_Pal.o
 .ARM.attributes
                0x000000db       0x16 joueur_d_Sprite.o
 .ARM.attributes
                0x000000f1       0x16 joueur_g_Pal.o
 .ARM.attributes
                0x00000107       0x16 joueur_g_Sprite.o
 .ARM.attributes
                0x0000011d       0x16 joueur_h_Pal.o
 .ARM.attributes
                0x00000133       0x16 joueur_h_Sprite.o
 .ARM.attributes
                0x00000149       0x16 pacman_Pal.o
 .ARM.attributes
                0x0000015f       0x16 pacman_Sprite.o
 .ARM.attributes
                0x00000175       0x16 sprite_00_Pal.o
 .ARM.attributes
                0x0000018b       0x16 sprite_00_Sprite.o
 .ARM.attributes
                0x000001a1       0x16 sprite_01_Pal.o
 .ARM.attributes
                0x000001b7       0x16 sprite_01_Sprite.o
 .ARM.attributes
                0x000001cd       0x16 sprite_02_Pal.o
 .ARM.attributes
                0x000001e3       0x16 sprite_02_Sprite.o
 .ARM.attributes
                0x000001f9       0x16 sprite_03_Pal.o
 .ARM.attributes
                0x0000020f       0x16 sprite_03_Sprite.o
 .ARM.attributes
                0x00000225       0x16 sprite_10_Pal.o
 .ARM.attributes
                0x0000023b       0x16 sprite_10_Sprite.o
 .ARM.attributes
                0x00000251       0x16 sprite_11_Pal.o
 .ARM.attributes
                0x00000267       0x16 sprite_11_Sprite.o
 .ARM.attributes
                0x0000027d       0x16 sprite_12_Pal.o
 .ARM.attributes
                0x00000293       0x16 sprite_12_Sprite.o
 .ARM.attributes
                0x000002a9       0x16 sprite_13_Pal.o
 .ARM.attributes
                0x000002bf       0x16 sprite_13_Sprite.o
 .ARM.attributes
                0x000002d5       0x16 sprite_20_Pal.o
 .ARM.attributes
                0x000002eb       0x16 sprite_20_Sprite.o
 .ARM.attributes
                0x00000301       0x16 sprite_21_Pal.o
 .ARM.attributes
                0x00000317       0x16 sprite_21_Sprite.o
 .ARM.attributes
                0x0000032d       0x16 sprite_22_Pal.o
 .ARM.attributes
                0x00000343       0x16 sprite_22_Sprite.o
 .ARM.attributes
                0x00000359       0x16 sprite_23_Pal.o
 .ARM.attributes
                0x0000036f       0x16 sprite_23_Sprite.o
 .ARM.attributes
                0x00000385       0x16 sprite_30_Pal.o
 .ARM.attributes
                0x0000039b       0x16 sprite_30_Sprite.o
 .ARM.attributes
                0x000003b1       0x16 sprite_31_Pal.o
 .ARM.attributes
                0x000003c7       0x16 sprite_31_Sprite.o
 .ARM.attributes
                0x000003dd       0x16 sprite_32_Pal.o
 .ARM.attributes
                0x000003f3       0x16 sprite_32_Sprite.o
 .ARM.attributes
                0x00000409       0x29 main.o
 .ARM.attributes
                0x00000432       0x29 procedures.o
 .ARM.attributes
                0x0000045b       0x27 c:/devkitPro/PAlib/lib\libpa9.a(PA.o)
 .ARM.attributes
                0x00000482       0x27 c:/devkitPro/PAlib/lib\libpa9.a(PA_BgTiles.o)
 .ARM.attributes
                0x000004a9       0x27 c:/devkitPro/PAlib/lib\libpa9.a(PA_Draw.o)
 .ARM.attributes
                0x000004d0       0x27 c:/devkitPro/PAlib/lib\libpa9.a(PA_Draw16bit.o)
 .ARM.attributes
                0x000004f7       0x27 c:/devkitPro/PAlib/lib\libpa9.a(PA_Error.o)
 .ARM.attributes
                0x0000051e       0x27 c:/devkitPro/PAlib/lib\libpa9.a(PA_Inits.o)
 .ARM.attributes
                0x00000545       0x27 c:/devkitPro/PAlib/lib\libpa9.a(PA_Interrupt.o)
 .ARM.attributes
                0x0000056c       0x27 c:/devkitPro/PAlib/lib\libpa9.a(PA_Keys.o)
 .ARM.attributes
                0x00000593       0x27 c:/devkitPro/PAlib/lib\libpa9.a(PA_Math.o)
 .ARM.attributes
                0x000005ba       0x27 c:/devkitPro/PAlib/lib\libpa9.a(PA_Palette.o)
 .ARM.attributes
                0x000005e1       0x27 c:/devkitPro/PAlib/lib\libpa9.a(PA_RTC.o)
 .ARM.attributes
                0x00000608       0x27 c:/devkitPro/PAlib/lib\libpa9.a(PA_Reco.o)
 .ARM.attributes
                0x0000062f       0x27 c:/devkitPro/PAlib/lib\libpa9.a(PA_Sprite.o)
 .ARM.attributes
                0x00000656       0x27 c:/devkitPro/PAlib/lib\libpa9.a(PA_Stuff.o)
 .ARM.attributes
                0x0000067d       0x27 c:/devkitPro/PAlib/lib\libpa9.a(PA_Text.o)
 .ARM.attributes
                0x000006a4       0x27 c:/devkitPro/PAlib/lib\libpa9.a(PA_TextBits.o)
 .ARM.attributes
                0x000006cb       0x27 c:/devkitPro/PAlib/lib\libpa9.a(PA_TiledFont.o)
 .ARM.attributes
                0x000006f2       0x27 c:/devkitPro/PAlib/lib\libpa9.a(PA_BmpFont0.o)
 .ARM.attributes
                0x00000719       0x27 c:/devkitPro/PAlib/lib\libpa9.a(PA_BmpFont1.o)
 .ARM.attributes
                0x00000740       0x27 c:/devkitPro/PAlib/lib\libpa9.a(PA_BmpFont2.o)
 .ARM.attributes
                0x00000767       0x27 c:/devkitPro/PAlib/lib\libpa9.a(PA_BmpFont3.o)
 .ARM.attributes
                0x0000078e       0x27 c:/devkitPro/PAlib/lib\libpa9.a(PA_BmpFont4.o)
 .ARM.attributes
                0x000007b5       0x14 c:/devkitPro/PAlib/lib\libpa9.a(PA_TiledFont_Map.bin.o)
 .ARM.attributes
                0x000007c9       0x14 c:/devkitPro/PAlib/lib\libpa9.a(PA_TiledFont_Pal.bin.o)
 .ARM.attributes
                0x000007dd       0x14 c:/devkitPro/PAlib/lib\libpa9.a(PA_TiledFont_Tiles.bin.o)
 .ARM.attributes
                0x000007f1       0x14 c:/devkitPro/PAlib/lib\libpa9.a(PA_BmpFont0_Map.bin.o)
 .ARM.attributes
                0x00000805       0x14 c:/devkitPro/PAlib/lib\libpa9.a(PA_BmpFont0_Sizes.bin.o)
 .ARM.attributes
                0x00000819       0x14 c:/devkitPro/PAlib/lib\libpa9.a(PA_BmpFont0_Tiles.bin.o)
 .ARM.attributes
                0x0000082d       0x14 c:/devkitPro/PAlib/lib\libpa9.a(PA_BmpFont1_Map.bin.o)
 .ARM.attributes
                0x00000841       0x14 c:/devkitPro/PAlib/lib\libpa9.a(PA_BmpFont1_Sizes.bin.o)
 .ARM.attributes
                0x00000855       0x14 c:/devkitPro/PAlib/lib\libpa9.a(PA_BmpFont1_Tiles.bin.o)
 .ARM.attributes
                0x00000869       0x14 c:/devkitPro/PAlib/lib\libpa9.a(PA_BmpFont2_Map.bin.o)
 .ARM.attributes
                0x0000087d       0x14 c:/devkitPro/PAlib/lib\libpa9.a(PA_BmpFont2_Sizes.bin.o)
 .ARM.attributes
                0x00000891       0x14 c:/devkitPro/PAlib/lib\libpa9.a(PA_BmpFont2_Tiles.bin.o)
 .ARM.attributes
                0x000008a5       0x14 c:/devkitPro/PAlib/lib\libpa9.a(PA_BmpFont3_Map.bin.o)
 .ARM.attributes
                0x000008b9       0x14 c:/devkitPro/PAlib/lib\libpa9.a(PA_BmpFont3_Sizes.bin.o)
 .ARM.attributes
                0x000008cd       0x14 c:/devkitPro/PAlib/lib\libpa9.a(PA_BmpFont3_Tiles.bin.o)
 .ARM.attributes
                0x000008e1       0x14 c:/devkitPro/PAlib/lib\libpa9.a(PA_BmpFont4_Map.bin.o)
 .ARM.attributes
                0x000008f5       0x14 c:/devkitPro/PAlib/lib\libpa9.a(PA_BmpFont4_Sizes.bin.o)
 .ARM.attributes
                0x00000909       0x14 c:/devkitPro/PAlib/lib\libpa9.a(PA_BmpFont4_Tiles.bin.o)
 .ARM.attributes
                0x0000091d       0x27 c:/devkitPro/PAlib/lib\libpa9.a(PA_Fifo.o)
 .ARM.attributes
                0x00000944       0x27 c:/devkitPro/PAlib/lib\libpa9.a(PA_NewBg.o)
 .ARM.attributes
                0x0000096b       0x27 c:/devkitPro/PAlib/lib\libpa9.a(PA_PaletteEx.o)
 .ARM.attributes
                0x00000992       0x27 c:/devkitPro/PAlib/lib\libpa9.a(PA_Text8bit.o)
 .ARM.attributes
                0x000009b9       0x27 c:/devkitPro/PAlib/lib\libpa9.a(PA_16c.o)
 .ARM.attributes
                0x000009e0       0x27 c:/devkitPro/PAlib/lib\libpa9.a(PA_BgEasy.o)
 .ARM.attributes
                0x00000a07       0x27 c:/devkitPro/PAlib/lib\libpa9.a(PA_BgLargeMap.o)
 .ARM.attributes
                0x00000a2e       0x27 c:/devkitPro/PAlib/lib\libpa9.a(PA_BgRot.o)
 .ARM.attributes
                0x00000a55       0x27 c:/devkitPro/PAlib/lib\libpa9.a(PA_Keyboard.o)
 .ARM.attributes
                0x00000a7c       0x27 c:/devkitPro/PAlib/lib\libpa9.a(keyboard.map.o)
 .ARM.attributes
                0x00000aa3       0x27 c:/devkitPro/PAlib/lib\libpa9.a(keyboard.pal.o)
 .ARM.attributes
                0x00000aca       0x27 c:/devkitPro/PAlib/lib\libpa9.a(keyboard.raw.o)
 .ARM.attributes
                0x00000af1       0x29 c:/devkitPro/libnds/lib\libnds9.a(keys.o)
 .ARM.attributes
                0x00000b1a       0x29 c:/devkitPro/libnds/lib\libnds9.a(system.o)
 .ARM.attributes
                0x00000b43       0x29 c:/devkitPro/libnds/lib\libnds9.a(touch.o)
 .ARM.attributes
                0x00000b6c       0x29 c:/devkitPro/libnds/lib\libnds9.a(video.o)
 .ARM.attributes
                0x00000b95       0x29 c:/devkitPro/libnds/lib\libnds9.a(initSystem.o)
 .ARM.attributes
                0x00000bbe       0x29 c:/devkitPro/libnds/lib\libnds9.a(fifosystem.o)
 .ARM.attributes
                0x00000be7       0x29 c:/devkitPro/libnds/lib\libnds9.a(interrupts.o)
 .ARM.attributes
                0x00000c10       0x29 c:/devkitPro/libnds/lib\libnds9.a(libnds_exit.arm.o)
 .ARM.attributes
                0x00000c39       0x1d c:/devkitPro/libnds/lib\libnds9.a(dcache.o)
 .ARM.attributes
                0x00000c56       0x23 c:/devkitPro/libnds/lib\libnds9.a(mpu_setup.o)
 .ARM.attributes
                0x00000c79       0x1d c:/devkitPro/libnds/lib\libnds9.a(biosCalls.o)
 .ARM.attributes
                0x00000c96       0x1d c:/devkitPro/libnds/lib\libnds9.a(interruptDispatcher.o)
 .ARM.attributes
                0x00000cb3       0x23 c:/devkitPro/libnds/lib\libnds9.a(swiSoftReset.o)
 .ARM.attributes
                0x00000cd6       0x1a c:/devkitpro/devkitarm/bin/../lib/gcc/arm-eabi/4.7.0/thumb\libgcc.a(_divsi3.o)
 .ARM.attributes
                0x00000cf0       0x18 c:/devkitpro/devkitarm/bin/../lib/gcc/arm-eabi/4.7.0/thumb\libgcc.a(_dvmd_tls.o)
 .ARM.attributes
                0x00000d08       0x1a c:/devkitpro/devkitarm/bin/../lib/gcc/arm-eabi/4.7.0/thumb\libgcc.a(_arm_addsubdf3.o)
 .ARM.attributes
                0x00000d22       0x1a c:/devkitpro/devkitarm/bin/../lib/gcc/arm-eabi/4.7.0/thumb\libgcc.a(_arm_muldivdf3.o)
 .ARM.attributes
                0x00000d3c       0x1a c:/devkitpro/devkitarm/bin/../lib/gcc/arm-eabi/4.7.0/thumb\libgcc.a(_arm_cmpdf2.o)
 .ARM.attributes
                0x00000d56       0x1a c:/devkitpro/devkitarm/bin/../lib/gcc/arm-eabi/4.7.0/thumb\libgcc.a(_arm_fixdfsi.o)
 .ARM.attributes
                0x00000d70       0x32 c:/devkitpro/devkitarm/bin/../lib/gcc/arm-eabi/4.7.0/thumb\libgcc.a(_muldi3.o)
 .ARM.attributes
                0x00000da2       0x32 c:/devkitpro/devkitarm/bin/../lib/gcc/arm-eabi/4.7.0/../../../../arm-eabi/lib/thumb\libg.a(lib_a-gmtime.o)
 .ARM.attributes
                0x00000dd4       0x32 c:/devkitpro/devkitarm/bin/../lib/gcc/arm-eabi/4.7.0/../../../../arm-eabi/lib/thumb\libg.a(lib_a-gmtime_r.o)
 .ARM.attributes
                0x00000e06       0x32 c:/devkitpro/devkitarm/bin/../lib/gcc/arm-eabi/4.7.0/../../../../arm-eabi/lib/thumb\libg.a(lib_a-impure.o)
 .ARM.attributes
                0x00000e38       0x32 c:/devkitpro/devkitarm/bin/../lib/gcc/arm-eabi/4.7.0/../../../../arm-eabi/lib/thumb\libg.a(lib_a-init.o)
 .ARM.attributes
                0x00000e6a       0x32 c:/devkitpro/devkitarm/bin/../lib/gcc/arm-eabi/4.7.0/../../../../arm-eabi/lib/thumb\libg.a(lib_a-locale.o)
 .ARM.attributes
                0x00000e9c       0x32 c:/devkitpro/devkitarm/bin/../lib/gcc/arm-eabi/4.7.0/../../../../arm-eabi/lib/thumb\libg.a(lib_a-malloc.o)
 .ARM.attributes
                0x00000ece       0x32 c:/devkitpro/devkitarm/bin/../lib/gcc/arm-eabi/4.7.0/../../../../arm-eabi/lib/thumb\libg.a(lib_a-mallocr.o)
 .ARM.attributes
                0x00000f00       0x32 c:/devkitpro/devkitarm/bin/../lib/gcc/arm-eabi/4.7.0/../../../../arm-eabi/lib/thumb\libg.a(lib_a-mbtowc_r.o)
 .ARM.attributes
                0x00000f32       0x32 c:/devkitpro/devkitarm/bin/../lib/gcc/arm-eabi/4.7.0/../../../../arm-eabi/lib/thumb\libg.a(lib_a-memcpy-stub.o)
 .ARM.attributes
                0x00000f64       0x32 c:/devkitpro/devkitarm/bin/../lib/gcc/arm-eabi/4.7.0/../../../../arm-eabi/lib/thumb\libg.a(lib_a-mktm_r.o)
 .ARM.attributes
                0x00000f96       0x32 c:/devkitpro/devkitarm/bin/../lib/gcc/arm-eabi/4.7.0/../../../../arm-eabi/lib/thumb\libg.a(lib_a-mlock.o)
 .ARM.attributes
                0x00000fc8       0x32 c:/devkitpro/devkitarm/bin/../lib/gcc/arm-eabi/4.7.0/../../../../arm-eabi/lib/thumb\libg.a(lib_a-strcasecmp.o)
 .ARM.attributes
                0x00000ffa       0x32 c:/devkitpro/devkitarm/bin/../lib/gcc/arm-eabi/4.7.0/../../../../arm-eabi/lib/thumb\libg.a(lib_a-strcat.o)
 .ARM.attributes
                0x0000102c       0x32 c:/devkitpro/devkitarm/bin/../lib/gcc/arm-eabi/4.7.0/../../../../arm-eabi/lib/thumb\libg.a(lib_a-strchr.o)
 .ARM.attributes
                0x0000105e       0x32 c:/devkitpro/devkitarm/bin/../lib/gcc/arm-eabi/4.7.0/../../../../arm-eabi/lib/thumb\libg.a(lib_a-strcmp.o)
 .ARM.attributes
                0x00001090       0x32 c:/devkitpro/devkitarm/bin/../lib/gcc/arm-eabi/4.7.0/../../../../arm-eabi/lib/thumb\libg.a(lib_a-strcpy.o)
 .ARM.attributes
                0x000010c2       0x32 c:/devkitpro/devkitarm/bin/../lib/gcc/arm-eabi/4.7.0/../../../../arm-eabi/lib/thumb\libg.a(lib_a-strlcpy.o)
 .ARM.attributes
                0x000010f4       0x32 c:/devkitpro/devkitarm/bin/../lib/gcc/arm-eabi/4.7.0/../../../../arm-eabi/lib/thumb\libg.a(lib_a-strlen.o)
 .ARM.attributes
                0x00001126       0x32 c:/devkitpro/devkitarm/bin/../lib/gcc/arm-eabi/4.7.0/../../../../arm-eabi/lib/thumb\libg.a(lib_a-strncasecmp.o)
 .ARM.attributes
                0x00001158       0x32 c:/devkitpro/devkitarm/bin/../lib/gcc/arm-eabi/4.7.0/../../../../arm-eabi/lib/thumb\libg.a(lib_a-strncmp.o)
 .ARM.attributes
                0x0000118a       0x32 c:/devkitpro/devkitarm/bin/../lib/gcc/arm-eabi/4.7.0/../../../../arm-eabi/lib/thumb\libg.a(lib_a-strncpy.o)
 .ARM.attributes
                0x000011bc       0x32 c:/devkitpro/devkitarm/bin/../lib/gcc/arm-eabi/4.7.0/../../../../arm-eabi/lib/thumb\libg.a(lib_a-strtol.o)
 .ARM.attributes
                0x000011ee       0x32 c:/devkitpro/devkitarm/bin/../lib/gcc/arm-eabi/4.7.0/../../../../arm-eabi/lib/thumb\libg.a(lib_a-sysstat.o)
 .ARM.attributes
                0x00001220       0x32 c:/devkitpro/devkitarm/bin/../lib/gcc/arm-eabi/4.7.0/../../../../arm-eabi/lib/thumb\libg.a(lib_a-time.o)
 .ARM.attributes
                0x00001252       0x32 c:/devkitpro/devkitarm/bin/../lib/gcc/arm-eabi/4.7.0/../../../../arm-eabi/lib/thumb\libg.a(lib_a-tzlock.o)
 .ARM.attributes
                0x00001284       0x32 c:/devkitpro/devkitarm/bin/../lib/gcc/arm-eabi/4.7.0/../../../../arm-eabi/lib/thumb\libg.a(lib_a-tzvars.o)
 .ARM.attributes
                0x000012b6       0x32 c:/devkitpro/devkitarm/bin/../lib/gcc/arm-eabi/4.7.0/../../../../arm-eabi/lib/thumb\libg.a(lib_a-wctomb_r.o)
 .ARM.attributes
                0x000012e8       0x32 c:/devkitpro/devkitarm/bin/../lib/gcc/arm-eabi/4.7.0/../../../../arm-eabi/lib/thumb\libg.a(lib_a-ctype_.o)
 .ARM.attributes
                0x0000131a       0x32 c:/devkitpro/devkitarm/bin/../lib/gcc/arm-eabi/4.7.0/../../../../arm-eabi/lib/thumb\libg.a(lib_a-freer.o)
 .ARM.attributes
                0x0000134c       0x32 c:/devkitpro/devkitarm/bin/../lib/gcc/arm-eabi/4.7.0/../../../../arm-eabi/lib/thumb\libg.a(lib_a-getenv_r.o)
 .ARM.attributes
                0x0000137e       0x32 c:/devkitpro/devkitarm/bin/../lib/gcc/arm-eabi/4.7.0/../../../../arm-eabi/lib/thumb\libg.a(lib_a-gettzinfo.o)
 .ARM.attributes
                0x000013b0       0x32 c:/devkitpro/devkitarm/bin/../lib/gcc/arm-eabi/4.7.0/../../../../arm-eabi/lib/thumb\libg.a(lib_a-environ.o)
 .ARM.attributes
                0x000013e2       0x32 c:/devkitpro/devkitarm/bin/../lib/gcc/arm-eabi/4.7.0/../../../../arm-eabi/lib/thumb\libg.a(lib_a-envlock.o)
 .ARM.attributes
                0x00001414       0x32 c:/devkitpro/devkitarm/bin/../lib/gcc/arm-eabi/4.7.0/../../../../arm-eabi/lib/thumb\libsysbase.a(sbrk.o)
 .ARM.attributes
                0x00001446       0x32 c:/devkitpro/devkitarm/bin/../lib/gcc/arm-eabi/4.7.0/../../../../arm-eabi/lib/thumb\libsysbase.a(stat.o)
 .ARM.attributes
                0x00001478       0x32 c:/devkitpro/devkitarm/bin/../lib/gcc/arm-eabi/4.7.0/../../../../arm-eabi/lib/thumb\libsysbase.a(times.o)
 .ARM.attributes
                0x000014aa       0x32 c:/devkitpro/devkitarm/bin/../lib/gcc/arm-eabi/4.7.0/../../../../arm-eabi/lib/thumb\libsysbase.a(malloc_vars.o)
 .ARM.attributes
                0x000014dc       0x32 c:/devkitpro/devkitarm/bin/../lib/gcc/arm-eabi/4.7.0/../../../../arm-eabi/lib/thumb\libsysbase.a(build_argv.o)
 .ARM.attributes
                0x0000150e       0x32 c:/devkitpro/devkitarm/bin/../lib/gcc/arm-eabi/4.7.0/../../../../arm-eabi/lib/thumb\libsysbase.a(syscall_support.o)
 .ARM.attributes
                0x00001540       0x32 c:/devkitpro/devkitarm/bin/../lib/gcc/arm-eabi/4.7.0/../../../../arm-eabi/lib/thumb\libsysbase.a(dirent.o)
 .ARM.attributes
                0x00001572       0x32 c:/devkitpro/devkitarm/bin/../lib/gcc/arm-eabi/4.7.0/../../../../arm-eabi/lib/thumb\libsysbase.a(iosupport.o)
 .ARM.attributes
                0x000015a4       0x1a c:/devkitpro/devkitarm/bin/../lib/gcc/arm-eabi/4.7.0/thumb\libgcc.a(_udivsi3.o)
 .ARM.attributes
                0x000015be       0x32 c:/devkitpro/devkitarm/bin/../lib/gcc/arm-eabi/4.7.0/../../../../arm-eabi/lib/thumb\libg.a(lib_a-errno.o)
 .ARM.attributes
                0x000015f0       0x32 c:/devkitpro/devkitarm/bin/../lib/gcc/arm-eabi/4.7.0/../../../../arm-eabi/lib/thumb\libg.a(lib_a-strnlen.o)
 .ARM.attributes
                0x00001622       0x32 c:/devkitpro/devkitarm/bin/../lib/gcc/arm-eabi/4.7.0/thumb/crtend.o
 .ARM.attributes
                0x00001654       0x18 c:/devkitpro/devkitarm/bin/../lib/gcc/arm-eabi/4.7.0/thumb/crtn.o

.debug
 *(.debug)

.line
 *(.line)

.debug_srcinfo
 *(.debug_srcinfo)

.debug_sfnames
 *(.debug_sfnames)

.debug_aranges  0x00000000      0x500
 *(.debug_aranges)
 .debug_aranges
                0x00000000       0x20 main.o
 .debug_aranges
                0x00000020       0x20 procedures.o
 .debug_aranges
                0x00000040       0x20 c:/devkitPro/PAlib/lib\libpa9.a(PA.o)
 .debug_aranges
                0x00000060       0x20 c:/devkitPro/PAlib/lib\libpa9.a(PA_BgTiles.o)
 .debug_aranges
                0x00000080       0x20 c:/devkitPro/PAlib/lib\libpa9.a(PA_Draw.o)
 .debug_aranges
                0x000000a0       0x20 c:/devkitPro/PAlib/lib\libpa9.a(PA_Draw16bit.o)
 .debug_aranges
                0x000000c0       0x20 c:/devkitPro/PAlib/lib\libpa9.a(PA_Error.o)
 .debug_aranges
                0x000000e0       0x20 c:/devkitPro/PAlib/lib\libpa9.a(PA_Inits.o)
 .debug_aranges
                0x00000100       0x20 c:/devkitPro/PAlib/lib\libpa9.a(PA_Interrupt.o)
 .debug_aranges
                0x00000120       0x20 c:/devkitPro/PAlib/lib\libpa9.a(PA_Keys.o)
 .debug_aranges
                0x00000140       0x20 c:/devkitPro/PAlib/lib\libpa9.a(PA_Math.o)
 .debug_aranges
                0x00000160       0x20 c:/devkitPro/PAlib/lib\libpa9.a(PA_Palette.o)
 .debug_aranges
                0x00000180       0x20 c:/devkitPro/PAlib/lib\libpa9.a(PA_RTC.o)
 .debug_aranges
                0x000001a0       0x20 c:/devkitPro/PAlib/lib\libpa9.a(PA_Reco.o)
 .debug_aranges
                0x000001c0       0x20 c:/devkitPro/PAlib/lib\libpa9.a(PA_Sprite.o)
 .debug_aranges
                0x000001e0       0x20 c:/devkitPro/PAlib/lib\libpa9.a(PA_Stuff.o)
 .debug_aranges
                0x00000200       0x20 c:/devkitPro/PAlib/lib\libpa9.a(PA_Text.o)
 .debug_aranges
                0x00000220       0x20 c:/devkitPro/PAlib/lib\libpa9.a(PA_TextBits.o)
 .debug_aranges
                0x00000240       0x20 c:/devkitPro/PAlib/lib\libpa9.a(PA_Fifo.o)
 .debug_aranges
                0x00000260       0x20 c:/devkitPro/PAlib/lib\libpa9.a(PA_NewBg.o)
 .debug_aranges
                0x00000280       0x20 c:/devkitPro/PAlib/lib\libpa9.a(PA_PaletteEx.o)
 .debug_aranges
                0x000002a0       0x20 c:/devkitPro/PAlib/lib\libpa9.a(PA_Text8bit.o)
 .debug_aranges
                0x000002c0       0x20 c:/devkitPro/PAlib/lib\libpa9.a(PA_16c.o)
 .debug_aranges
                0x000002e0       0x20 c:/devkitPro/PAlib/lib\libpa9.a(PA_BgEasy.o)
 .debug_aranges
                0x00000300       0x20 c:/devkitPro/PAlib/lib\libpa9.a(PA_BgLargeMap.o)
 .debug_aranges
                0x00000320       0x20 c:/devkitPro/PAlib/lib\libpa9.a(PA_BgRot.o)
 .debug_aranges
                0x00000340       0x20 c:/devkitPro/PAlib/lib\libpa9.a(PA_Keyboard.o)
 .debug_aranges
                0x00000360       0x20 c:/devkitPro/libnds/lib\libnds9.a(keys.o)
 .debug_aranges
                0x00000380       0x20 c:/devkitPro/libnds/lib\libnds9.a(system.o)
 .debug_aranges
                0x000003a0       0x20 c:/devkitPro/libnds/lib\libnds9.a(touch.o)
 .debug_aranges
                0x000003c0       0x20 c:/devkitPro/libnds/lib\libnds9.a(video.o)
 .debug_aranges
                0x000003e0       0x20 c:/devkitPro/libnds/lib\libnds9.a(initSystem.o)
 .debug_aranges
                0x00000400       0x20 c:/devkitPro/libnds/lib\libnds9.a(fifosystem.o)
 .debug_aranges
                0x00000420       0x20 c:/devkitPro/libnds/lib\libnds9.a(interrupts.o)
 .debug_aranges
                0x00000440       0x20 c:/devkitPro/libnds/lib\libnds9.a(libnds_exit.arm.o)
 .debug_aranges
                0x00000460       0x20 c:/devkitPro/libnds/lib\libnds9.a(dcache.o)
 .debug_aranges
                0x00000480       0x20 c:/devkitPro/libnds/lib\libnds9.a(mpu_setup.o)
 .debug_aranges
                0x000004a0       0x20 c:/devkitPro/libnds/lib\libnds9.a(biosCalls.o)
 .debug_aranges
                0x000004c0       0x20 c:/devkitPro/libnds/lib\libnds9.a(interruptDispatcher.o)
 .debug_aranges
                0x000004e0       0x20 c:/devkitPro/libnds/lib\libnds9.a(swiSoftReset.o)

.debug_pubnames
                0x00000000     0x10ae
 *(.debug_pubnames)
 .debug_pubnames
                0x00000000       0xfe c:/devkitPro/PAlib/lib\libpa9.a(PA.o)
 .debug_pubnames
                0x000000fe      0x12e c:/devkitPro/PAlib/lib\libpa9.a(PA_BgTiles.o)
 .debug_pubnames
                0x0000022c       0xa9 c:/devkitPro/PAlib/lib\libpa9.a(PA_Draw.o)
 .debug_pubnames
                0x000002d5       0x80 c:/devkitPro/PAlib/lib\libpa9.a(PA_Draw16bit.o)
 .debug_pubnames
                0x00000355       0x2e c:/devkitPro/PAlib/lib\libpa9.a(PA_Error.o)
 .debug_pubnames
                0x00000383       0x39 c:/devkitPro/PAlib/lib\libpa9.a(PA_Inits.o)
 .debug_pubnames
                0x000003bc       0xa4 c:/devkitPro/PAlib/lib\libpa9.a(PA_Interrupt.o)
 .debug_pubnames
                0x00000460       0x47 c:/devkitPro/PAlib/lib\libpa9.a(PA_Keys.o)
 .debug_pubnames
                0x000004a7       0x40 c:/devkitPro/PAlib/lib\libpa9.a(PA_Math.o)
 .debug_pubnames
                0x000004e7       0x76 c:/devkitPro/PAlib/lib\libpa9.a(PA_Palette.o)
 .debug_pubnames
                0x0000055d       0x54 c:/devkitPro/PAlib/lib\libpa9.a(PA_RTC.o)
 .debug_pubnames
                0x000005b1       0xd1 c:/devkitPro/PAlib/lib\libpa9.a(PA_Reco.o)
 .debug_pubnames
                0x00000682      0x1e9 c:/devkitPro/PAlib/lib\libpa9.a(PA_Sprite.o)
 .debug_pubnames
                0x0000086b       0x34 c:/devkitPro/PAlib/lib\libpa9.a(PA_Stuff.o)
 .debug_pubnames
                0x0000089f      0x11c c:/devkitPro/PAlib/lib\libpa9.a(PA_Text.o)
 .debug_pubnames
                0x000009bb       0xc4 c:/devkitPro/PAlib/lib\libpa9.a(PA_TextBits.o)
 .debug_pubnames
                0x00000a7f       0x23 c:/devkitPro/PAlib/lib\libpa9.a(PA_TiledFont.o)
 .debug_pubnames
                0x00000aa2       0x22 c:/devkitPro/PAlib/lib\libpa9.a(PA_BmpFont0.o)
 .debug_pubnames
                0x00000ac4       0x22 c:/devkitPro/PAlib/lib\libpa9.a(PA_BmpFont1.o)
 .debug_pubnames
                0x00000ae6       0x22 c:/devkitPro/PAlib/lib\libpa9.a(PA_BmpFont2.o)
 .debug_pubnames
                0x00000b08       0x22 c:/devkitPro/PAlib/lib\libpa9.a(PA_BmpFont3.o)
 .debug_pubnames
                0x00000b2a       0x22 c:/devkitPro/PAlib/lib\libpa9.a(PA_BmpFont4.o)
 .debug_pubnames
                0x00000b4c       0x38 c:/devkitPro/PAlib/lib\libpa9.a(PA_Fifo.o)
 .debug_pubnames
                0x00000b84       0x73 c:/devkitPro/PAlib/lib\libpa9.a(PA_NewBg.o)
 .debug_pubnames
                0x00000bf7       0x88 c:/devkitPro/PAlib/lib\libpa9.a(PA_PaletteEx.o)
 .debug_pubnames
                0x00000c7f       0xb4 c:/devkitPro/PAlib/lib\libpa9.a(PA_Text8bit.o)
 .debug_pubnames
                0x00000d33       0xb0 c:/devkitPro/PAlib/lib\libpa9.a(PA_16c.o)
 .debug_pubnames
                0x00000de3       0x68 c:/devkitPro/PAlib/lib\libpa9.a(PA_BgEasy.o)
 .debug_pubnames
                0x00000e4b       0xdf c:/devkitPro/PAlib/lib\libpa9.a(PA_BgLargeMap.o)
 .debug_pubnames
                0x00000f2a       0x55 c:/devkitPro/PAlib/lib\libpa9.a(PA_BgRot.o)
 .debug_pubnames
                0x00000f7f       0xc0 c:/devkitPro/PAlib/lib\libpa9.a(PA_Keyboard.o)
 .debug_pubnames
                0x0000103f       0x23 c:/devkitPro/PAlib/lib\libpa9.a(keyboard.map.o)
 .debug_pubnames
                0x00001062       0x27 c:/devkitPro/PAlib/lib\libpa9.a(keyboard.pal.o)
 .debug_pubnames
                0x00001089       0x25 c:/devkitPro/PAlib/lib\libpa9.a(keyboard.raw.o)

.debug_info     0x00000000    0x4402b
 *(.debug_info)
 .debug_info    0x00000000     0x1ce0 main.o
 .debug_info    0x00001ce0     0x37e4 procedures.o
 .debug_info    0x000054c4     0x2481 c:/devkitPro/PAlib/lib\libpa9.a(PA.o)
 .debug_info    0x00007945     0x25f9 c:/devkitPro/PAlib/lib\libpa9.a(PA_BgTiles.o)
 .debug_info    0x00009f3e     0x21fe c:/devkitPro/PAlib/lib\libpa9.a(PA_Draw.o)
 .debug_info    0x0000c13c     0x2417 c:/devkitPro/PAlib/lib\libpa9.a(PA_Draw16bit.o)
 .debug_info    0x0000e553     0x1ec0 c:/devkitPro/PAlib/lib\libpa9.a(PA_Error.o)
 .debug_info    0x00010413     0x27ab c:/devkitPro/PAlib/lib\libpa9.a(PA_Inits.o)
 .debug_info    0x00012bbe     0x20b0 c:/devkitPro/PAlib/lib\libpa9.a(PA_Interrupt.o)
 .debug_info    0x00014c6e     0x2131 c:/devkitPro/PAlib/lib\libpa9.a(PA_Keys.o)
 .debug_info    0x00016d9f     0x20be c:/devkitPro/PAlib/lib\libpa9.a(PA_Math.o)
 .debug_info    0x00018e5d     0x2476 c:/devkitPro/PAlib/lib\libpa9.a(PA_Palette.o)
 .debug_info    0x0001b2d3     0x22dd c:/devkitPro/PAlib/lib\libpa9.a(PA_RTC.o)
 .debug_info    0x0001d5b0     0x2417 c:/devkitPro/PAlib/lib\libpa9.a(PA_Reco.o)
 .debug_info    0x0001f9c7     0x275a c:/devkitPro/PAlib/lib\libpa9.a(PA_Sprite.o)
 .debug_info    0x00022121     0x2186 c:/devkitPro/PAlib/lib\libpa9.a(PA_Stuff.o)
 .debug_info    0x000242a7     0x24a8 c:/devkitPro/PAlib/lib\libpa9.a(PA_Text.o)
 .debug_info    0x0002674f     0x2430 c:/devkitPro/PAlib/lib\libpa9.a(PA_TextBits.o)
 .debug_info    0x00028b7f      0x1c6 c:/devkitPro/PAlib/lib\libpa9.a(PA_TiledFont.o)
 .debug_info    0x00028d45      0x1c6 c:/devkitPro/PAlib/lib\libpa9.a(PA_BmpFont0.o)
 .debug_info    0x00028f0b      0x1c6 c:/devkitPro/PAlib/lib\libpa9.a(PA_BmpFont1.o)
 .debug_info    0x000290d1      0x1c6 c:/devkitPro/PAlib/lib\libpa9.a(PA_BmpFont2.o)
 .debug_info    0x00029297      0x1c6 c:/devkitPro/PAlib/lib\libpa9.a(PA_BmpFont3.o)
 .debug_info    0x0002945d      0x1c6 c:/devkitPro/PAlib/lib\libpa9.a(PA_BmpFont4.o)
 .debug_info    0x00029623     0x20fa c:/devkitPro/PAlib/lib\libpa9.a(PA_Fifo.o)
 .debug_info    0x0002b71d     0x28a8 c:/devkitPro/PAlib/lib\libpa9.a(PA_NewBg.o)
 .debug_info    0x0002dfc5     0x2370 c:/devkitPro/PAlib/lib\libpa9.a(PA_PaletteEx.o)
 .debug_info    0x00030335     0x349e c:/devkitPro/PAlib/lib\libpa9.a(PA_Text8bit.o)
 .debug_info    0x000337d3     0x2770 c:/devkitPro/PAlib/lib\libpa9.a(PA_16c.o)
 .debug_info    0x00035f43     0x240e c:/devkitPro/PAlib/lib\libpa9.a(PA_BgEasy.o)
 .debug_info    0x00038351     0x2d35 c:/devkitPro/PAlib/lib\libpa9.a(PA_BgLargeMap.o)
 .debug_info    0x0003b086     0x2051 c:/devkitPro/PAlib/lib\libpa9.a(PA_BgRot.o)
 .debug_info    0x0003d0d7     0x24f4 c:/devkitPro/PAlib/lib\libpa9.a(PA_Keyboard.o)
 .debug_info    0x0003f5cb       0x54 c:/devkitPro/PAlib/lib\libpa9.a(keyboard.map.o)
 .debug_info    0x0003f61f       0x53 c:/devkitPro/PAlib/lib\libpa9.a(keyboard.pal.o)
 .debug_info    0x0003f672       0x54 c:/devkitPro/PAlib/lib\libpa9.a(keyboard.raw.o)
 .debug_info    0x0003f6c6      0x415 c:/devkitPro/libnds/lib\libnds9.a(keys.o)
 .debug_info    0x0003fadb      0x91b c:/devkitPro/libnds/lib\libnds9.a(system.o)
 .debug_info    0x000403f6      0x302 c:/devkitPro/libnds/lib\libnds9.a(touch.o)
 .debug_info    0x000406f8      0x71e c:/devkitPro/libnds/lib\libnds9.a(video.o)
 .debug_info    0x00040e16     0x1030 c:/devkitPro/libnds/lib\libnds9.a(initSystem.o)
 .debug_info    0x00041e46     0x1546 c:/devkitPro/libnds/lib\libnds9.a(fifosystem.o)
 .debug_info    0x0004338c      0x5b4 c:/devkitPro/libnds/lib\libnds9.a(interrupts.o)
 .debug_info    0x00043940      0x323 c:/devkitPro/libnds/lib\libnds9.a(libnds_exit.arm.o)
 .debug_info    0x00043c63       0xba c:/devkitPro/libnds/lib\libnds9.a(dcache.o)
 .debug_info    0x00043d1d       0xc4 c:/devkitPro/libnds/lib\libnds9.a(mpu_setup.o)
 .debug_info    0x00043de1       0xbf c:/devkitPro/libnds/lib\libnds9.a(biosCalls.o)
 .debug_info    0x00043ea0       0xc9 c:/devkitPro/libnds/lib\libnds9.a(interruptDispatcher.o)
 .debug_info    0x00043f69       0xc2 c:/devkitPro/libnds/lib\libnds9.a(swiSoftReset.o)

.debug_abbrev   0x00000000     0x6413
 *(.debug_abbrev)
 .debug_abbrev  0x00000000      0x202 main.o
 .debug_abbrev  0x00000202      0x4aa procedures.o
 .debug_abbrev  0x000006ac      0x27d c:/devkitPro/PAlib/lib\libpa9.a(PA.o)
 .debug_abbrev  0x00000929      0x314 c:/devkitPro/PAlib/lib\libpa9.a(PA_BgTiles.o)
 .debug_abbrev  0x00000c3d      0x270 c:/devkitPro/PAlib/lib\libpa9.a(PA_Draw.o)
 .debug_abbrev  0x00000ead      0x279 c:/devkitPro/PAlib/lib\libpa9.a(PA_Draw16bit.o)
 .debug_abbrev  0x00001126      0x1e6 c:/devkitPro/PAlib/lib\libpa9.a(PA_Error.o)
 .debug_abbrev  0x0000130c      0x316 c:/devkitPro/PAlib/lib\libpa9.a(PA_Inits.o)
 .debug_abbrev  0x00001622      0x23f c:/devkitPro/PAlib/lib\libpa9.a(PA_Interrupt.o)
 .debug_abbrev  0x00001861      0x224 c:/devkitPro/PAlib/lib\libpa9.a(PA_Keys.o)
 .debug_abbrev  0x00001a85      0x292 c:/devkitPro/PAlib/lib\libpa9.a(PA_Math.o)
 .debug_abbrev  0x00001d17      0x2ba c:/devkitPro/PAlib/lib\libpa9.a(PA_Palette.o)
 .debug_abbrev  0x00001fd1      0x239 c:/devkitPro/PAlib/lib\libpa9.a(PA_RTC.o)
 .debug_abbrev  0x0000220a      0x30a c:/devkitPro/PAlib/lib\libpa9.a(PA_Reco.o)
 .debug_abbrev  0x00002514      0x3b1 c:/devkitPro/PAlib/lib\libpa9.a(PA_Sprite.o)
 .debug_abbrev  0x000028c5      0x248 c:/devkitPro/PAlib/lib\libpa9.a(PA_Stuff.o)
 .debug_abbrev  0x00002b0d      0x363 c:/devkitPro/PAlib/lib\libpa9.a(PA_Text.o)
 .debug_abbrev  0x00002e70      0x2b0 c:/devkitPro/PAlib/lib\libpa9.a(PA_TextBits.o)
 .debug_abbrev  0x00003120       0xcf c:/devkitPro/PAlib/lib\libpa9.a(PA_TiledFont.o)
 .debug_abbrev  0x000031ef       0xcf c:/devkitPro/PAlib/lib\libpa9.a(PA_BmpFont0.o)
 .debug_abbrev  0x000032be       0xcf c:/devkitPro/PAlib/lib\libpa9.a(PA_BmpFont1.o)
 .debug_abbrev  0x0000338d       0xcf c:/devkitPro/PAlib/lib\libpa9.a(PA_BmpFont2.o)
 .debug_abbrev  0x0000345c       0xcf c:/devkitPro/PAlib/lib\libpa9.a(PA_BmpFont3.o)
 .debug_abbrev  0x0000352b       0xcf c:/devkitPro/PAlib/lib\libpa9.a(PA_BmpFont4.o)
 .debug_abbrev  0x000035fa      0x211 c:/devkitPro/PAlib/lib\libpa9.a(PA_Fifo.o)
 .debug_abbrev  0x0000380b      0x350 c:/devkitPro/PAlib/lib\libpa9.a(PA_NewBg.o)
 .debug_abbrev  0x00003b5b      0x29b c:/devkitPro/PAlib/lib\libpa9.a(PA_PaletteEx.o)
 .debug_abbrev  0x00003df6      0x34b c:/devkitPro/PAlib/lib\libpa9.a(PA_Text8bit.o)
 .debug_abbrev  0x00004141      0x374 c:/devkitPro/PAlib/lib\libpa9.a(PA_16c.o)
 .debug_abbrev  0x000044b5      0x325 c:/devkitPro/PAlib/lib\libpa9.a(PA_BgEasy.o)
 .debug_abbrev  0x000047da      0x340 c:/devkitPro/PAlib/lib\libpa9.a(PA_BgLargeMap.o)
 .debug_abbrev  0x00004b1a      0x252 c:/devkitPro/PAlib/lib\libpa9.a(PA_BgRot.o)
 .debug_abbrev  0x00004d6c      0x33d c:/devkitPro/PAlib/lib\libpa9.a(PA_Keyboard.o)
 .debug_abbrev  0x000050a9       0x50 c:/devkitPro/PAlib/lib\libpa9.a(keyboard.map.o)
 .debug_abbrev  0x000050f9       0x50 c:/devkitPro/PAlib/lib\libpa9.a(keyboard.pal.o)
 .debug_abbrev  0x00005149       0x50 c:/devkitPro/PAlib/lib\libpa9.a(keyboard.raw.o)
 .debug_abbrev  0x00005199      0x185 c:/devkitPro/libnds/lib\libnds9.a(keys.o)
 .debug_abbrev  0x0000531e      0x26a c:/devkitPro/libnds/lib\libnds9.a(system.o)
 .debug_abbrev  0x00005588      0x124 c:/devkitPro/libnds/lib\libnds9.a(touch.o)
 .debug_abbrev  0x000056ac      0x209 c:/devkitPro/libnds/lib\libnds9.a(video.o)
 .debug_abbrev  0x000058b5      0x2dc c:/devkitPro/libnds/lib\libnds9.a(initSystem.o)
 .debug_abbrev  0x00005b91      0x470 c:/devkitPro/libnds/lib\libnds9.a(fifosystem.o)
 .debug_abbrev  0x00006001      0x239 c:/devkitPro/libnds/lib\libnds9.a(interrupts.o)
 .debug_abbrev  0x0000623a      0x175 c:/devkitPro/libnds/lib\libnds9.a(libnds_exit.arm.o)
 .debug_abbrev  0x000063af       0x14 c:/devkitPro/libnds/lib\libnds9.a(dcache.o)
 .debug_abbrev  0x000063c3       0x14 c:/devkitPro/libnds/lib\libnds9.a(mpu_setup.o)
 .debug_abbrev  0x000063d7       0x14 c:/devkitPro/libnds/lib\libnds9.a(biosCalls.o)
 .debug_abbrev  0x000063eb       0x14 c:/devkitPro/libnds/lib\libnds9.a(interruptDispatcher.o)
 .debug_abbrev  0x000063ff       0x14 c:/devkitPro/libnds/lib\libnds9.a(swiSoftReset.o)

.debug_line     0x00000000     0xba0f
 *(.debug_line)
 .debug_line    0x00000000      0x370 main.o
 .debug_line    0x00000370      0x879 procedures.o
 .debug_line    0x00000be9      0x41c c:/devkitPro/PAlib/lib\libpa9.a(PA.o)
 .debug_line    0x00001005      0x6df c:/devkitPro/PAlib/lib\libpa9.a(PA_BgTiles.o)
 .debug_line    0x000016e4      0x50e c:/devkitPro/PAlib/lib\libpa9.a(PA_Draw.o)
 .debug_line    0x00001bf2      0x43f c:/devkitPro/PAlib/lib\libpa9.a(PA_Draw16bit.o)
 .debug_line    0x00002031      0x390 c:/devkitPro/PAlib/lib\libpa9.a(PA_Error.o)
 .debug_line    0x000023c1      0x4e5 c:/devkitPro/PAlib/lib\libpa9.a(PA_Inits.o)
 .debug_line    0x000028a6      0x3f2 c:/devkitPro/PAlib/lib\libpa9.a(PA_Interrupt.o)
 .debug_line    0x00002c98      0x40f c:/devkitPro/PAlib/lib\libpa9.a(PA_Keys.o)
 .debug_line    0x000030a7      0x45d c:/devkitPro/PAlib/lib\libpa9.a(PA_Math.o)
 .debug_line    0x00003504      0x5ca c:/devkitPro/PAlib/lib\libpa9.a(PA_Palette.o)
 .debug_line    0x00003ace      0x40d c:/devkitPro/PAlib/lib\libpa9.a(PA_RTC.o)
 .debug_line    0x00003edb      0x567 c:/devkitPro/PAlib/lib\libpa9.a(PA_Reco.o)
 .debug_line    0x00004442      0x74e c:/devkitPro/PAlib/lib\libpa9.a(PA_Sprite.o)
 .debug_line    0x00004b90      0x401 c:/devkitPro/PAlib/lib\libpa9.a(PA_Stuff.o)
 .debug_line    0x00004f91      0x73b c:/devkitPro/PAlib/lib\libpa9.a(PA_Text.o)
 .debug_line    0x000056cc      0x532 c:/devkitPro/PAlib/lib\libpa9.a(PA_TextBits.o)
 .debug_line    0x00005bfe       0xee c:/devkitPro/PAlib/lib\libpa9.a(PA_TiledFont.o)
 .debug_line    0x00005cec       0xee c:/devkitPro/PAlib/lib\libpa9.a(PA_BmpFont0.o)
 .debug_line    0x00005dda       0xee c:/devkitPro/PAlib/lib\libpa9.a(PA_BmpFont1.o)
 .debug_line    0x00005ec8       0xee c:/devkitPro/PAlib/lib\libpa9.a(PA_BmpFont2.o)
 .debug_line    0x00005fb6       0xee c:/devkitPro/PAlib/lib\libpa9.a(PA_BmpFont3.o)
 .debug_line    0x000060a4       0xee c:/devkitPro/PAlib/lib\libpa9.a(PA_BmpFont4.o)
 .debug_line    0x00006192      0x42d c:/devkitPro/PAlib/lib\libpa9.a(PA_Fifo.o)
 .debug_line    0x000065bf      0x6b1 c:/devkitPro/PAlib/lib\libpa9.a(PA_NewBg.o)
 .debug_line    0x00006c70      0x4b2 c:/devkitPro/PAlib/lib\libpa9.a(PA_PaletteEx.o)
 .debug_line    0x00007122      0xa84 c:/devkitPro/PAlib/lib\libpa9.a(PA_Text8bit.o)
 .debug_line    0x00007ba6      0x5d8 c:/devkitPro/PAlib/lib\libpa9.a(PA_16c.o)
 .debug_line    0x0000817e      0x4eb c:/devkitPro/PAlib/lib\libpa9.a(PA_BgEasy.o)
 .debug_line    0x00008669      0xcaf c:/devkitPro/PAlib/lib\libpa9.a(PA_BgLargeMap.o)
 .debug_line    0x00009318      0x422 c:/devkitPro/PAlib/lib\libpa9.a(PA_BgRot.o)
 .debug_line    0x0000973a      0x64d c:/devkitPro/PAlib/lib\libpa9.a(PA_Keyboard.o)
 .debug_line    0x00009d87       0x55 c:/devkitPro/PAlib/lib\libpa9.a(keyboard.map.o)
 .debug_line    0x00009ddc       0x55 c:/devkitPro/PAlib/lib\libpa9.a(keyboard.pal.o)
 .debug_line    0x00009e31       0x55 c:/devkitPro/PAlib/lib\libpa9.a(keyboard.raw.o)
 .debug_line    0x00009e86      0x247 c:/devkitPro/libnds/lib\libnds9.a(keys.o)
 .debug_line    0x0000a0cd      0x28e c:/devkitPro/libnds/lib\libnds9.a(system.o)
 .debug_line    0x0000a35b      0x226 c:/devkitPro/libnds/lib\libnds9.a(touch.o)
 .debug_line    0x0000a581      0x241 c:/devkitPro/libnds/lib\libnds9.a(video.o)
 .debug_line    0x0000a7c2      0x37e c:/devkitPro/libnds/lib\libnds9.a(initSystem.o)
 .debug_line    0x0000ab40      0x6cd c:/devkitPro/libnds/lib\libnds9.a(fifosystem.o)
 .debug_line    0x0000b20d      0x272 c:/devkitPro/libnds/lib\libnds9.a(interrupts.o)
 .debug_line    0x0000b47f      0x1cc c:/devkitPro/libnds/lib\libnds9.a(libnds_exit.arm.o)
 .debug_line    0x0000b64b       0xa2 c:/devkitPro/libnds/lib\libnds9.a(dcache.o)
 .debug_line    0x0000b6ed      0x101 c:/devkitPro/libnds/lib\libnds9.a(mpu_setup.o)
 .debug_line    0x0000b7ee       0xc3 c:/devkitPro/libnds/lib\libnds9.a(biosCalls.o)
 .debug_line    0x0000b8b1       0xc7 c:/devkitPro/libnds/lib\libnds9.a(interruptDispatcher.o)
 .debug_line    0x0000b978       0x97 c:/devkitPro/libnds/lib\libnds9.a(swiSoftReset.o)

.debug_frame    0x00000000     0x16a0
 *(.debug_frame)
 .debug_frame   0x00000000       0x28 main.o
 .debug_frame   0x00000028      0x158 procedures.o
 .debug_frame   0x00000180       0x54 c:/devkitPro/PAlib/lib\libpa9.a(PA.o)
 .debug_frame   0x000001d4      0x124 c:/devkitPro/PAlib/lib\libpa9.a(PA_BgTiles.o)
 .debug_frame   0x000002f8       0x3c c:/devkitPro/PAlib/lib\libpa9.a(PA_Draw.o)
 .debug_frame   0x00000334       0x7c c:/devkitPro/PAlib/lib\libpa9.a(PA_Draw16bit.o)
 .debug_frame   0x000003b0       0x48 c:/devkitPro/PAlib/lib\libpa9.a(PA_Error.o)
 .debug_frame   0x000003f8       0x54 c:/devkitPro/PAlib/lib\libpa9.a(PA_Inits.o)
 .debug_frame   0x0000044c       0x44 c:/devkitPro/PAlib/lib\libpa9.a(PA_Interrupt.o)
 .debug_frame   0x00000490       0x5c c:/devkitPro/PAlib/lib\libpa9.a(PA_Keys.o)
 .debug_frame   0x000004ec       0x3c c:/devkitPro/PAlib/lib\libpa9.a(PA_Math.o)
 .debug_frame   0x00000528       0x70 c:/devkitPro/PAlib/lib\libpa9.a(PA_Palette.o)
 .debug_frame   0x00000598       0x44 c:/devkitPro/PAlib/lib\libpa9.a(PA_RTC.o)
 .debug_frame   0x000005dc       0x84 c:/devkitPro/PAlib/lib\libpa9.a(PA_Reco.o)
 .debug_frame   0x00000660      0x144 c:/devkitPro/PAlib/lib\libpa9.a(PA_Sprite.o)
 .debug_frame   0x000007a4       0x54 c:/devkitPro/PAlib/lib\libpa9.a(PA_Stuff.o)
 .debug_frame   0x000007f8       0xe0 c:/devkitPro/PAlib/lib\libpa9.a(PA_Text.o)
 .debug_frame   0x000008d8       0x64 c:/devkitPro/PAlib/lib\libpa9.a(PA_TextBits.o)
 .debug_frame   0x0000093c       0x44 c:/devkitPro/PAlib/lib\libpa9.a(PA_Fifo.o)
 .debug_frame   0x00000980       0xc8 c:/devkitPro/PAlib/lib\libpa9.a(PA_NewBg.o)
 .debug_frame   0x00000a48       0xa8 c:/devkitPro/PAlib/lib\libpa9.a(PA_PaletteEx.o)
 .debug_frame   0x00000af0      0x150 c:/devkitPro/PAlib/lib\libpa9.a(PA_Text8bit.o)
 .debug_frame   0x00000c40       0xe8 c:/devkitPro/PAlib/lib\libpa9.a(PA_16c.o)
 .debug_frame   0x00000d28       0xa4 c:/devkitPro/PAlib/lib\libpa9.a(PA_BgEasy.o)
 .debug_frame   0x00000dcc      0x18c c:/devkitPro/PAlib/lib\libpa9.a(PA_BgLargeMap.o)
 .debug_frame   0x00000f58       0x3c c:/devkitPro/PAlib/lib\libpa9.a(PA_BgRot.o)
 .debug_frame   0x00000f94       0xe0 c:/devkitPro/PAlib/lib\libpa9.a(PA_Keyboard.o)
 .debug_frame   0x00001074       0x8c c:/devkitPro/libnds/lib\libnds9.a(keys.o)
 .debug_frame   0x00001100       0xc8 c:/devkitPro/libnds/lib\libnds9.a(system.o)
 .debug_frame   0x000011c8       0x44 c:/devkitPro/libnds/lib\libnds9.a(touch.o)
 .debug_frame   0x0000120c       0xc4 c:/devkitPro/libnds/lib\libnds9.a(video.o)
 .debug_frame   0x000012d0       0x2c c:/devkitPro/libnds/lib\libnds9.a(initSystem.o)
 .debug_frame   0x000012fc      0x2b8 c:/devkitPro/libnds/lib\libnds9.a(fifosystem.o)
 .debug_frame   0x000015b4       0xb4 c:/devkitPro/libnds/lib\libnds9.a(interrupts.o)
 .debug_frame   0x00001668       0x38 c:/devkitPro/libnds/lib\libnds9.a(libnds_exit.arm.o)

.debug_str      0x00000000     0x4cbb
 *(.debug_str)
 .debug_str     0x00000000      0xca4 main.o
                                0xdc9 (size before relaxing)
 .debug_str     0x00000ca4      0x51e procedures.o
                               0x12f0 (size before relaxing)
 .debug_str     0x000011c2      0x40e c:/devkitPro/PAlib/lib\libpa9.a(PA.o)
                               0x1156 (size before relaxing)
 .debug_str     0x000015d0      0x129 c:/devkitPro/PAlib/lib\libpa9.a(PA_BgTiles.o)
                                0xfe6 (size before relaxing)
 .debug_str     0x000016f9      0x16b c:/devkitPro/PAlib/lib\libpa9.a(PA_Draw.o)
                                0xe94 (size before relaxing)
 .debug_str     0x00001864      0x7e8 c:/devkitPro/PAlib/lib\libpa9.a(PA_Draw16bit.o)
                               0x1572 (size before relaxing)
 .debug_str     0x0000204c       0x5d c:/devkitPro/PAlib/lib\libpa9.a(PA_Error.o)
                                0xcb5 (size before relaxing)
 .debug_str     0x000020a9      0x2ea c:/devkitPro/PAlib/lib\libpa9.a(PA_Inits.o)
                               0x1707 (size before relaxing)
 .debug_str     0x00002393       0x63 c:/devkitPro/PAlib/lib\libpa9.a(PA_Interrupt.o)
                                0xdf9 (size before relaxing)
 .debug_str     0x000023f6       0x7f c:/devkitPro/PAlib/lib\libpa9.a(PA_Keys.o)
                                0xe45 (size before relaxing)
 .debug_str     0x00002475       0x8f c:/devkitPro/PAlib/lib\libpa9.a(PA_Math.o)
                                0xda7 (size before relaxing)
 .debug_str     0x00002504      0x35c c:/devkitPro/PAlib/lib\libpa9.a(PA_Palette.o)
                               0x10d0 (size before relaxing)
 .debug_str     0x00002860      0x1c7 c:/devkitPro/PAlib/lib\libpa9.a(PA_RTC.o)
                                0xf4f (size before relaxing)
 .debug_str     0x00002a27      0x159 c:/devkitPro/PAlib/lib\libpa9.a(PA_Reco.o)
                                0xea8 (size before relaxing)
 .debug_str     0x00002b80      0x19c c:/devkitPro/PAlib/lib\libpa9.a(PA_Sprite.o)
                                0xfdb (size before relaxing)
 .debug_str     0x00002d1c      0x181 c:/devkitPro/PAlib/lib\libpa9.a(PA_Stuff.o)
                                0xe11 (size before relaxing)
 .debug_str     0x00002e9d      0x143 c:/devkitPro/PAlib/lib\libpa9.a(PA_Text.o)
                                0xf3f (size before relaxing)
 .debug_str     0x00002fe0      0x1e6 c:/devkitPro/PAlib/lib\libpa9.a(PA_TextBits.o)
                                0xf39 (size before relaxing)
 .debug_str     0x000031c6       0xa3 c:/devkitPro/PAlib/lib\libpa9.a(PA_TiledFont.o)
                                0x16f (size before relaxing)
 .debug_str     0x00003269       0x43 c:/devkitPro/PAlib/lib\libpa9.a(PA_BmpFont0.o)
                                0x16d (size before relaxing)
 .debug_str     0x000032ac       0x43 c:/devkitPro/PAlib/lib\libpa9.a(PA_BmpFont1.o)
                                0x16d (size before relaxing)
 .debug_str     0x000032ef       0x43 c:/devkitPro/PAlib/lib\libpa9.a(PA_BmpFont2.o)
                                0x16d (size before relaxing)
 .debug_str     0x00003332       0x43 c:/devkitPro/PAlib/lib\libpa9.a(PA_BmpFont3.o)
                                0x16d (size before relaxing)
 .debug_str     0x00003375       0x43 c:/devkitPro/PAlib/lib\libpa9.a(PA_BmpFont4.o)
                                0x16d (size before relaxing)
 .debug_str     0x000033b8      0x11e c:/devkitPro/PAlib/lib\libpa9.a(PA_Fifo.o)
                                0xe45 (size before relaxing)
 .debug_str     0x000034d6      0x12e c:/devkitPro/PAlib/lib\libpa9.a(PA_NewBg.o)
                                0xeee (size before relaxing)
 .debug_str     0x00003604      0x26f c:/devkitPro/PAlib/lib\libpa9.a(PA_PaletteEx.o)
                               0x11b1 (size before relaxing)
 .debug_str     0x00003873      0x119 c:/devkitPro/PAlib/lib\libpa9.a(PA_Text8bit.o)
                                0xf2f (size before relaxing)
 .debug_str     0x0000398c      0x10d c:/devkitPro/PAlib/lib\libpa9.a(PA_16c.o)
                                0xf67 (size before relaxing)
 .debug_str     0x00003a99       0x9e c:/devkitPro/PAlib/lib\libpa9.a(PA_BgEasy.o)
                                0xd74 (size before relaxing)
 .debug_str     0x00003b37      0x149 c:/devkitPro/PAlib/lib\libpa9.a(PA_BgLargeMap.o)
                                0xe09 (size before relaxing)
 .debug_str     0x00003c80       0x59 c:/devkitPro/PAlib/lib\libpa9.a(PA_BgRot.o)
                                0xdd6 (size before relaxing)
 .debug_str     0x00003cd9      0x115 c:/devkitPro/PAlib/lib\libpa9.a(PA_Keyboard.o)
                                0xeba (size before relaxing)
 .debug_str     0x00003dee       0x35 c:/devkitPro/PAlib/lib\libpa9.a(keyboard.map.o)
                                 0x61 (size before relaxing)
 .debug_str     0x00003e23       0x35 c:/devkitPro/PAlib/lib\libpa9.a(keyboard.pal.o)
                                 0x65 (size before relaxing)
 .debug_str     0x00003e58       0x35 c:/devkitPro/PAlib/lib\libpa9.a(keyboard.raw.o)
                                 0x5e (size before relaxing)
 .debug_str     0x00003e8d      0x16f c:/devkitPro/libnds/lib\libnds9.a(keys.o)
                                0x2f5 (size before relaxing)
 .debug_str     0x00003ffc      0x2e8 c:/devkitPro/libnds/lib\libnds9.a(system.o)
                                0x5dd (size before relaxing)
 .debug_str     0x000042e4       0x70 c:/devkitPro/libnds/lib\libnds9.a(touch.o)
                                0x211 (size before relaxing)
 .debug_str     0x00004354      0x1e4 c:/devkitPro/libnds/lib\libnds9.a(video.o)
                                0xb3e (size before relaxing)
 .debug_str     0x00004538      0x134 c:/devkitPro/libnds/lib\libnds9.a(initSystem.o)
                                0xa02 (size before relaxing)
 .debug_str     0x0000466c      0x4b7 c:/devkitPro/libnds/lib\libnds9.a(fifosystem.o)
                                0x793 (size before relaxing)
 .debug_str     0x00004b23      0x10e c:/devkitPro/libnds/lib\libnds9.a(interrupts.o)
                                0x382 (size before relaxing)
 .debug_str     0x00004c31       0x8a c:/devkitPro/libnds/lib\libnds9.a(libnds_exit.arm.o)
                                0x2c6 (size before relaxing)

.debug_loc      0x00000000     0xd1d1
 *(.debug_loc)
 .debug_loc     0x00000000       0x20 main.o
 .debug_loc     0x00000020     0x211d procedures.o
 .debug_loc     0x0000213d       0xa0 c:/devkitPro/PAlib/lib\libpa9.a(PA.o)
 .debug_loc     0x000021dd      0x88e c:/devkitPro/PAlib/lib\libpa9.a(PA_BgTiles.o)
 .debug_loc     0x00002a6b      0x3e6 c:/devkitPro/PAlib/lib\libpa9.a(PA_Draw.o)
 .debug_loc     0x00002e51      0x18f c:/devkitPro/PAlib/lib\libpa9.a(PA_Draw16bit.o)
 .debug_loc     0x00002fe0       0xe2 c:/devkitPro/PAlib/lib\libpa9.a(PA_Error.o)
 .debug_loc     0x000030c2      0x17d c:/devkitPro/PAlib/lib\libpa9.a(PA_Inits.o)
 .debug_loc     0x0000323f       0x68 c:/devkitPro/PAlib/lib\libpa9.a(PA_Interrupt.o)
 .debug_loc     0x000032a7       0xb3 c:/devkitPro/PAlib/lib\libpa9.a(PA_Keys.o)
 .debug_loc     0x0000335a      0x2f0 c:/devkitPro/PAlib/lib\libpa9.a(PA_Math.o)
 .debug_loc     0x0000364a      0x3cd c:/devkitPro/PAlib/lib\libpa9.a(PA_Palette.o)
 .debug_loc     0x00003a17       0xa1 c:/devkitPro/PAlib/lib\libpa9.a(PA_RTC.o)
 .debug_loc     0x00003ab8      0x896 c:/devkitPro/PAlib/lib\libpa9.a(PA_Reco.o)
 .debug_loc     0x0000434e      0x87a c:/devkitPro/PAlib/lib\libpa9.a(PA_Sprite.o)
 .debug_loc     0x00004bc8      0x150 c:/devkitPro/PAlib/lib\libpa9.a(PA_Stuff.o)
 .debug_loc     0x00004d18      0xaea c:/devkitPro/PAlib/lib\libpa9.a(PA_Text.o)
 .debug_loc     0x00005802      0x739 c:/devkitPro/PAlib/lib\libpa9.a(PA_TextBits.o)
 .debug_loc     0x00005f3b       0x7d c:/devkitPro/PAlib/lib\libpa9.a(PA_Fifo.o)
 .debug_loc     0x00005fb8      0x922 c:/devkitPro/PAlib/lib\libpa9.a(PA_NewBg.o)
 .debug_loc     0x000068da      0x2fe c:/devkitPro/PAlib/lib\libpa9.a(PA_PaletteEx.o)
 .debug_loc     0x00006bd8     0x1c67 c:/devkitPro/PAlib/lib\libpa9.a(PA_Text8bit.o)
 .debug_loc     0x0000883f      0x7c6 c:/devkitPro/PAlib/lib\libpa9.a(PA_16c.o)
 .debug_loc     0x00009005      0x57d c:/devkitPro/PAlib/lib\libpa9.a(PA_BgEasy.o)
 .debug_loc     0x00009582     0x1617 c:/devkitPro/PAlib/lib\libpa9.a(PA_BgLargeMap.o)
 .debug_loc     0x0000ab99      0x223 c:/devkitPro/PAlib/lib\libpa9.a(PA_BgRot.o)
 .debug_loc     0x0000adbc      0x5f3 c:/devkitPro/PAlib/lib\libpa9.a(PA_Keyboard.o)
 .debug_loc     0x0000b3af       0x20 c:/devkitPro/libnds/lib\libnds9.a(keys.o)
 .debug_loc     0x0000b3cf      0x2cf c:/devkitPro/libnds/lib\libnds9.a(system.o)
 .debug_loc     0x0000b69e      0x115 c:/devkitPro/libnds/lib\libnds9.a(touch.o)
 .debug_loc     0x0000b7b3      0x2a1 c:/devkitPro/libnds/lib\libnds9.a(video.o)
 .debug_loc     0x0000ba54       0x3f c:/devkitPro/libnds/lib\libnds9.a(initSystem.o)
 .debug_loc     0x0000ba93     0x149c c:/devkitPro/libnds/lib\libnds9.a(fifosystem.o)
 .debug_loc     0x0000cf2f      0x22a c:/devkitPro/libnds/lib\libnds9.a(interrupts.o)
 .debug_loc     0x0000d159       0x78 c:/devkitPro/libnds/lib\libnds9.a(libnds_exit.arm.o)

.debug_macinfo
 *(.debug_macinfo)

.debug_weaknames
 *(.debug_weaknames)

.debug_funcnames
 *(.debug_funcnames)

.debug_typenames
 *(.debug_typenames)

.debug_varnames
 *(.debug_varnames)

.stack          0x00080000        0x0
                0x00080000                _stack = .
 *(.stack)
LOAD c:/devkitpro/devkitarm/bin/../lib/gcc/arm-eabi/4.7.0/../../../../arm-eabi/lib/thumb/ds_arm9_crt0.o
LOAD c:/devkitpro/devkitarm/bin/../lib/gcc/arm-eabi/4.7.0/thumb/crti.o
LOAD c:/devkitpro/devkitarm/bin/../lib/gcc/arm-eabi/4.7.0/thumb/crtbegin.o
LOAD demarrage_bas_Bitmap.o
LOAD demarrage_haut_Bitmap.o
LOAD joueur_b_Pal.o
LOAD joueur_b_Sprite.o
LOAD joueur_d_Pal.o
LOAD joueur_d_Sprite.o
LOAD joueur_g_Pal.o
LOAD joueur_g_Sprite.o
LOAD joueur_h_Pal.o
LOAD joueur_h_Sprite.o
LOAD pacman_Pal.o
LOAD pacman_Sprite.o
LOAD sprite_00_Pal.o
LOAD sprite_00_Sprite.o
LOAD sprite_01_Pal.o
LOAD sprite_01_Sprite.o
LOAD sprite_02_Pal.o
LOAD sprite_02_Sprite.o
LOAD sprite_03_Pal.o
LOAD sprite_03_Sprite.o
LOAD sprite_10_Pal.o
LOAD sprite_10_Sprite.o
LOAD sprite_11_Pal.o
LOAD sprite_11_Sprite.o
LOAD sprite_12_Pal.o
LOAD sprite_12_Sprite.o
LOAD sprite_13_Pal.o
LOAD sprite_13_Sprite.o
LOAD sprite_20_Pal.o
LOAD sprite_20_Sprite.o
LOAD sprite_21_Pal.o
LOAD sprite_21_Sprite.o
LOAD sprite_22_Pal.o
LOAD sprite_22_Sprite.o
LOAD sprite_23_Pal.o
LOAD sprite_23_Sprite.o
LOAD sprite_30_Pal.o
LOAD sprite_30_Sprite.o
LOAD sprite_31_Pal.o
LOAD sprite_31_Sprite.o
LOAD sprite_32_Pal.o
LOAD sprite_32_Sprite.o
LOAD main.o
LOAD procedures.o
LOAD c:/devkitPro/PAlib/lib\libpa9.a
LOAD c:/devkitPro/libnds/lib\libfilesystem.a
LOAD c:/devkitPro/libnds/lib\libfat.a
LOAD c:/devkitPro/libnds/lib\libnds9.a
START GROUP
LOAD c:/devkitpro/devkitarm/bin/../lib/gcc/arm-eabi/4.7.0/thumb\libgcc.a
LOAD c:/devkitpro/devkitarm/bin/../lib/gcc/arm-eabi/4.7.0/../../../../arm-eabi/lib/thumb\libg.a
LOAD c:/devkitpro/devkitarm/bin/../lib/gcc/arm-eabi/4.7.0/../../../../arm-eabi/lib/thumb\libc.a
LOAD c:/devkitpro/devkitarm/bin/../lib/gcc/arm-eabi/4.7.0/../../../../arm-eabi/lib/thumb\libsysbase.a
END GROUP
LOAD c:/devkitpro/devkitarm/bin/../lib/gcc/arm-eabi/4.7.0/thumb/crtend.o
LOAD c:/devkitpro/devkitarm/bin/../lib/gcc/arm-eabi/4.7.0/thumb/crtn.o
OUTPUT(build.elf elf32-littlearm)

.debug_ranges   0x00000000     0x2e68
 .debug_ranges  0x00000000       0x10 main.o
 .debug_ranges  0x00000010      0x790 procedures.o
 .debug_ranges  0x000007a0      0x100 c:/devkitPro/PAlib/lib\libpa9.a(PA_BgTiles.o)
 .debug_ranges  0x000008a0       0x28 c:/devkitPro/PAlib/lib\libpa9.a(PA_Draw.o)
 .debug_ranges  0x000008c8       0x40 c:/devkitPro/PAlib/lib\libpa9.a(PA_Draw16bit.o)
 .debug_ranges  0x00000908       0xd8 c:/devkitPro/PAlib/lib\libpa9.a(PA_Inits.o)
 .debug_ranges  0x000009e0      0x120 c:/devkitPro/PAlib/lib\libpa9.a(PA_Math.o)
 .debug_ranges  0x00000b00       0xd0 c:/devkitPro/PAlib/lib\libpa9.a(PA_Palette.o)
 .debug_ranges  0x00000bd0       0xc0 c:/devkitPro/PAlib/lib\libpa9.a(PA_Reco.o)
 .debug_ranges  0x00000c90      0x148 c:/devkitPro/PAlib/lib\libpa9.a(PA_Sprite.o)
 .debug_ranges  0x00000dd8       0x48 c:/devkitPro/PAlib/lib\libpa9.a(PA_Text.o)
 .debug_ranges  0x00000e20       0x28 c:/devkitPro/PAlib/lib\libpa9.a(PA_TextBits.o)
 .debug_ranges  0x00000e48      0x250 c:/devkitPro/PAlib/lib\libpa9.a(PA_NewBg.o)
 .debug_ranges  0x00001098       0x78 c:/devkitPro/PAlib/lib\libpa9.a(PA_PaletteEx.o)
 .debug_ranges  0x00001110      0xce0 c:/devkitPro/PAlib/lib\libpa9.a(PA_Text8bit.o)
 .debug_ranges  0x00001df0       0x58 c:/devkitPro/PAlib/lib\libpa9.a(PA_16c.o)
 .debug_ranges  0x00001e48      0x108 c:/devkitPro/PAlib/lib\libpa9.a(PA_BgEasy.o)
 .debug_ranges  0x00001f50      0x750 c:/devkitPro/PAlib/lib\libpa9.a(PA_BgLargeMap.o)
 .debug_ranges  0x000026a0       0x20 c:/devkitPro/PAlib/lib\libpa9.a(PA_BgRot.o)
 .debug_ranges  0x000026c0      0x168 c:/devkitPro/PAlib/lib\libpa9.a(PA_Keyboard.o)
 .debug_ranges  0x00002828       0x18 c:/devkitPro/libnds/lib\libnds9.a(touch.o)
 .debug_ranges  0x00002840       0x78 c:/devkitPro/libnds/lib\libnds9.a(video.o)
 .debug_ranges  0x000028b8      0x490 c:/devkitPro/libnds/lib\libnds9.a(fifosystem.o)
 .debug_ranges  0x00002d48      0x120 c:/devkitPro/libnds/lib\libnds9.a(interrupts.o)

.debug_pubtypes
                0x00000000     0x51d6
 .debug_pubtypes
                0x00000000      0x382 c:/devkitPro/PAlib/lib\libpa9.a(PA.o)
 .debug_pubtypes
                0x00000382      0x33f c:/devkitPro/PAlib/lib\libpa9.a(PA_BgTiles.o)
 .debug_pubtypes
                0x000006c1      0x327 c:/devkitPro/PAlib/lib\libpa9.a(PA_Draw.o)
 .debug_pubtypes
                0x000009e8      0x326 c:/devkitPro/PAlib/lib\libpa9.a(PA_Draw16bit.o)
 .debug_pubtypes
                0x00000d0e      0x308 c:/devkitPro/PAlib/lib\libpa9.a(PA_Error.o)
 .debug_pubtypes
                0x00001016      0x343 c:/devkitPro/PAlib/lib\libpa9.a(PA_Inits.o)
 .debug_pubtypes
                0x00001359      0x327 c:/devkitPro/PAlib/lib\libpa9.a(PA_Interrupt.o)
 .debug_pubtypes
                0x00001680      0x350 c:/devkitPro/PAlib/lib\libpa9.a(PA_Keys.o)
 .debug_pubtypes
                0x000019d0      0x331 c:/devkitPro/PAlib/lib\libpa9.a(PA_Math.o)
 .debug_pubtypes
                0x00001d01      0x365 c:/devkitPro/PAlib/lib\libpa9.a(PA_Palette.o)
 .debug_pubtypes
                0x00002066      0x349 c:/devkitPro/PAlib/lib\libpa9.a(PA_RTC.o)
 .debug_pubtypes
                0x000023af      0x341 c:/devkitPro/PAlib/lib\libpa9.a(PA_Reco.o)
 .debug_pubtypes
                0x000026f0      0x33d c:/devkitPro/PAlib/lib\libpa9.a(PA_Sprite.o)
 .debug_pubtypes
                0x00002a2d      0x3bd c:/devkitPro/PAlib/lib\libpa9.a(PA_Stuff.o)
 .debug_pubtypes
                0x00002dea      0x359 c:/devkitPro/PAlib/lib\libpa9.a(PA_Text.o)
 .debug_pubtypes
                0x00003143      0x316 c:/devkitPro/PAlib/lib\libpa9.a(PA_TextBits.o)
 .debug_pubtypes
                0x00003459       0x2d c:/devkitPro/PAlib/lib\libpa9.a(PA_TiledFont.o)
 .debug_pubtypes
                0x00003486       0x2d c:/devkitPro/PAlib/lib\libpa9.a(PA_BmpFont0.o)
 .debug_pubtypes
                0x000034b3       0x2d c:/devkitPro/PAlib/lib\libpa9.a(PA_BmpFont1.o)
 .debug_pubtypes
                0x000034e0       0x2d c:/devkitPro/PAlib/lib\libpa9.a(PA_BmpFont2.o)
 .debug_pubtypes
                0x0000350d       0x2d c:/devkitPro/PAlib/lib\libpa9.a(PA_BmpFont3.o)
 .debug_pubtypes
                0x0000353a       0x2d c:/devkitPro/PAlib/lib\libpa9.a(PA_BmpFont4.o)
 .debug_pubtypes
                0x00003567      0x32d c:/devkitPro/PAlib/lib\libpa9.a(PA_Fifo.o)
 .debug_pubtypes
                0x00003894      0x341 c:/devkitPro/PAlib/lib\libpa9.a(PA_NewBg.o)
 .debug_pubtypes
                0x00003bd5      0x360 c:/devkitPro/PAlib/lib\libpa9.a(PA_PaletteEx.o)
 .debug_pubtypes
                0x00003f35      0x323 c:/devkitPro/PAlib/lib\libpa9.a(PA_Text8bit.o)
 .debug_pubtypes
                0x00004258      0x32b c:/devkitPro/PAlib/lib\libpa9.a(PA_16c.o)
 .debug_pubtypes
                0x00004583      0x311 c:/devkitPro/PAlib/lib\libpa9.a(PA_BgEasy.o)
 .debug_pubtypes
                0x00004894      0x311 c:/devkitPro/PAlib/lib\libpa9.a(PA_BgLargeMap.o)
 .debug_pubtypes
                0x00004ba5      0x314 c:/devkitPro/PAlib/lib\libpa9.a(PA_BgRot.o)
 .debug_pubtypes
                0x00004eb9      0x31d c:/devkitPro/PAlib/lib\libpa9.a(PA_Keyboard.o)
